

Microchip MPLAB XC8 Assembler V2.32 build 20210201212658 
                                                                                               Thu Dec 02 20:56:34 2021

Microchip MPLAB XC8 C Compiler v2.32 (Free license) build 20210201212658 Og1 
     1                           	processor	16F18875
     2                           	pagewidth 120
     3                           	opt	flic
     4                           	psect	idataCOMMON,global,class=CODE,delta=2,noexec
     5                           	psect	idataBANK0,global,class=CODE,delta=2,noexec
     6                           	psect	nvBANK0,global,class=BANK0,space=1,delta=1,noexec
     7                           	psect	cinit,global,class=CODE,merge=1,delta=2
     8                           	psect	bssCOMMON,global,class=COMMON,space=1,delta=1,noexec
     9                           	psect	dataCOMMON,global,class=COMMON,space=1,delta=1,noexec
    10                           	psect	dataBANK0,global,class=BANK0,space=1,delta=1,noexec
    11                           	psect	inittext,global,class=CODE,delta=2
    12                           	psect	cstackCOMMON,global,class=COMMON,space=1,delta=1,noexec
    13                           	psect	maintext,global,class=CODE,merge=1,split=1,delta=2
    14                           	psect	text1,local,class=CODE,merge=1,delta=2
    15                           	psect	text2,local,class=CODE,merge=1,delta=2
    16                           	psect	text3,local,class=CODE,merge=1,delta=2
    17                           	psect	text4,local,class=CODE,merge=1,delta=2
    18                           	psect	text5,local,class=CODE,merge=1,delta=2
    19                           	psect	text6,local,class=CODE,merge=1,delta=2
    20                           	psect	text7,local,class=CODE,merge=1,delta=2
    21                           	psect	text8,local,class=CODE,merge=1,delta=2
    22                           	psect	text9,local,class=CODE,merge=1,delta=2
    23                           	psect	intentry,global,class=CODE,delta=2
    24                           	psect	text11,local,class=CODE,merge=1,delta=2
    25                           	psect	text12,local,class=CODE,merge=1,delta=2
    26                           	psect	text13,local,class=CODE,merge=1,delta=2
    27                           	psect	text14,local,class=CODE,merge=1,delta=2
    28                           	psect	text15,local,class=CODE,merge=1,delta=2
    29                           	psect	text16,local,class=CODE,merge=1,delta=2
    30                           	psect	text17,local,class=CODE,merge=1,delta=2
    31                           	psect	text18,local,class=CODE,merge=1,delta=2
    32                           	psect	text19,local,class=CODE,merge=1,delta=2
    33                           	psect	text20,local,class=CODE,merge=1,delta=2
    34                           	psect	text21,local,class=CODE,merge=1,delta=2
    35                           	psect	text22,local,class=CODE,merge=1,delta=2
    36                           	psect	text23,local,class=CODE,merge=1,delta=2
    37                           	psect	config,global,abs,ovrld,class=CONFIG,space=4,delta=2,noexec
    38                           	dabs	1,0x7E,2
    39  0000                     
    40                           ; Version 2.35
    41                           ; Generated 01/06/2021 GMT
    42                           ; 
    43                           ; Copyright © 2021, Microchip Technology Inc. and its subsidiaries ("Microchip")
    44                           ; All rights reserved.
    45                           ; 
    46                           ; This software is developed by Microchip Technology Inc. and its subsidiaries ("Microch
      +                          ip").
    47                           ; 
    48                           ; Redistribution and use in source and binary forms, with or without modification, are
    49                           ; permitted provided that the following conditions are met:
    50                           ; 
    51                           ;     1. Redistributions of source code must retain the above copyright notice, this lis
      +                          t of
    52                           ;        conditions and the following disclaimer.
    53                           ; 
    54                           ;     2. Redistributions in binary form must reproduce the above copyright notice, this 
      +                          list
    55                           ;        of conditions and the following disclaimer in the documentation and/or other
    56                           ;        materials provided with the distribution. Publication is not required when
    57                           ;        this file is used in an embedded application.
    58                           ; 
    59                           ;     3. Microchip's name may not be used to endorse or promote products derived from th
      +                          is
    60                           ;        software without specific prior written permission.
    61                           ; 
    62                           ; THIS SOFTWARE IS PROVIDED BY MICROCHIP "AS IS" AND ANY EXPRESS OR IMPLIED WARRANTIES,
    63                           ; INCLUDING, BUT NOT LIMITED TO, THE IMPLIED WARRANTIES OF MERCHANTABILITY AND FITNESS F
      +                          OR
    64                           ; PURPOSE ARE DISCLAIMED.  IN NO EVENT SHALL MICROCHIP BE LIABLE FOR ANY DIRECT, INDIREC
      +                          T,
    65                           ; INCIDENTAL, SPECIAL, EXEMPLARY, OR CONSEQUENTIAL DAMAGES (INCLUDING BUT NOT LIMITED TO
    66                           ; PROCUREMENT OF SUBSTITUTE GOODS OR SERVICES; LOSS OF USE, DATA OR PROFITS; OR BUSINESS
    67                           ; INTERRUPTION) HOWSOEVER CAUSED AND ON ANY THEORY OF LIABILITY, WHETHER IN CONTRACT, ST
      +                          RICT
    68                           ; LIABILITY, OR TORT (INCLUDING NEGLIGENCE OR OTHERWISE) ARISING IN ANY WAY OUT OF THE U
      +                          SE OF
    69                           ; THIS SOFTWARE, EVEN IF ADVISED OF THE POSSIBILITY OF SUCH DAMAGE.
    70                           ; 
    71                           ; 
    72                           ; Code-generator required, PIC16F18875 Definitions
    73                           ; 
    74                           ; SFR Addresses
    75  0000                     	;# 
    76  0001                     	;# 
    77  0002                     	;# 
    78  0003                     	;# 
    79  0004                     	;# 
    80  0005                     	;# 
    81  0006                     	;# 
    82  0007                     	;# 
    83  0008                     	;# 
    84  0009                     	;# 
    85  000A                     	;# 
    86  000B                     	;# 
    87  000C                     	;# 
    88  000D                     	;# 
    89  000E                     	;# 
    90  000F                     	;# 
    91  0010                     	;# 
    92  0011                     	;# 
    93  0012                     	;# 
    94  0013                     	;# 
    95  0014                     	;# 
    96  0015                     	;# 
    97  0016                     	;# 
    98  0017                     	;# 
    99  0018                     	;# 
   100  0019                     	;# 
   101  001A                     	;# 
   102  001C                     	;# 
   103  001C                     	;# 
   104  001D                     	;# 
   105  001D                     	;# 
   106  001E                     	;# 
   107  001F                     	;# 
   108  008C                     	;# 
   109  008C                     	;# 
   110  008D                     	;# 
   111  008E                     	;# 
   112  008E                     	;# 
   113  008F                     	;# 
   114  0090                     	;# 
   115  0090                     	;# 
   116  0091                     	;# 
   117  0093                     	;# 
   118  0094                     	;# 
   119  0095                     	;# 
   120  0096                     	;# 
   121  0097                     	;# 
   122  0098                     	;# 
   123  0099                     	;# 
   124  009A                     	;# 
   125  009B                     	;# 
   126  009C                     	;# 
   127  009D                     	;# 
   128  009E                     	;# 
   129  010C                     	;# 
   130  010D                     	;# 
   131  010E                     	;# 
   132  010E                     	;# 
   133  010F                     	;# 
   134  0110                     	;# 
   135  0110                     	;# 
   136  0111                     	;# 
   137  0112                     	;# 
   138  0112                     	;# 
   139  0113                     	;# 
   140  0114                     	;# 
   141  0114                     	;# 
   142  0115                     	;# 
   143  0116                     	;# 
   144  0116                     	;# 
   145  0117                     	;# 
   146  0119                     	;# 
   147  0119                     	;# 
   148  0119                     	;# 
   149  011A                     	;# 
   150  011A                     	;# 
   151  011A                     	;# 
   152  011B                     	;# 
   153  011B                     	;# 
   154  011B                     	;# 
   155  011B                     	;# 
   156  011B                     	;# 
   157  011C                     	;# 
   158  011C                     	;# 
   159  011C                     	;# 
   160  011D                     	;# 
   161  011D                     	;# 
   162  011D                     	;# 
   163  011E                     	;# 
   164  011E                     	;# 
   165  011E                     	;# 
   166  011F                     	;# 
   167  011F                     	;# 
   168  011F                     	;# 
   169  011F                     	;# 
   170  011F                     	;# 
   171  018C                     	;# 
   172  018D                     	;# 
   173  018E                     	;# 
   174  018F                     	;# 
   175  0190                     	;# 
   176  0191                     	;# 
   177  0192                     	;# 
   178  0196                     	;# 
   179  0197                     	;# 
   180  0198                     	;# 
   181  0199                     	;# 
   182  019A                     	;# 
   183  019B                     	;# 
   184  019C                     	;# 
   185  020C                     	;# 
   186  020C                     	;# 
   187  020D                     	;# 
   188  020E                     	;# 
   189  020F                     	;# 
   190  020F                     	;# 
   191  0210                     	;# 
   192  0210                     	;# 
   193  0211                     	;# 
   194  0211                     	;# 
   195  0212                     	;# 
   196  0212                     	;# 
   197  0213                     	;# 
   198  0214                     	;# 
   199  0215                     	;# 
   200  0215                     	;# 
   201  0216                     	;# 
   202  0216                     	;# 
   203  0217                     	;# 
   204  0217                     	;# 
   205  0218                     	;# 
   206  0218                     	;# 
   207  0219                     	;# 
   208  021A                     	;# 
   209  021B                     	;# 
   210  021B                     	;# 
   211  021C                     	;# 
   212  021C                     	;# 
   213  021D                     	;# 
   214  021D                     	;# 
   215  021E                     	;# 
   216  021F                     	;# 
   217  028C                     	;# 
   218  028C                     	;# 
   219  028D                     	;# 
   220  028D                     	;# 
   221  028E                     	;# 
   222  028F                     	;# 
   223  0290                     	;# 
   224  0290                     	;# 
   225  0291                     	;# 
   226  0292                     	;# 
   227  0292                     	;# 
   228  0293                     	;# 
   229  0293                     	;# 
   230  0294                     	;# 
   231  0295                     	;# 
   232  0296                     	;# 
   233  0296                     	;# 
   234  0297                     	;# 
   235  0298                     	;# 
   236  0298                     	;# 
   237  0299                     	;# 
   238  0299                     	;# 
   239  029A                     	;# 
   240  029B                     	;# 
   241  029C                     	;# 
   242  029C                     	;# 
   243  029D                     	;# 
   244  030C                     	;# 
   245  030C                     	;# 
   246  030D                     	;# 
   247  030E                     	;# 
   248  030F                     	;# 
   249  0310                     	;# 
   250  0310                     	;# 
   251  0311                     	;# 
   252  0312                     	;# 
   253  0313                     	;# 
   254  0314                     	;# 
   255  0314                     	;# 
   256  0315                     	;# 
   257  0316                     	;# 
   258  0317                     	;# 
   259  0318                     	;# 
   260  0318                     	;# 
   261  0319                     	;# 
   262  031A                     	;# 
   263  031B                     	;# 
   264  031C                     	;# 
   265  031C                     	;# 
   266  031D                     	;# 
   267  031E                     	;# 
   268  031F                     	;# 
   269  038C                     	;# 
   270  038C                     	;# 
   271  038D                     	;# 
   272  038E                     	;# 
   273  0390                     	;# 
   274  0390                     	;# 
   275  0391                     	;# 
   276  0392                     	;# 
   277  040C                     	;# 
   278  040D                     	;# 
   279  040E                     	;# 
   280  040F                     	;# 
   281  0410                     	;# 
   282  0411                     	;# 
   283  0416                     	;# 
   284  0416                     	;# 
   285  0417                     	;# 
   286  0418                     	;# 
   287  0418                     	;# 
   288  0419                     	;# 
   289  041A                     	;# 
   290  041A                     	;# 
   291  041B                     	;# 
   292  041C                     	;# 
   293  041C                     	;# 
   294  041D                     	;# 
   295  041E                     	;# 
   296  041F                     	;# 
   297  048C                     	;# 
   298  048C                     	;# 
   299  048D                     	;# 
   300  048E                     	;# 
   301  048F                     	;# 
   302  048F                     	;# 
   303  0490                     	;# 
   304  0491                     	;# 
   305  0492                     	;# 
   306  0492                     	;# 
   307  0493                     	;# 
   308  0494                     	;# 
   309  0495                     	;# 
   310  0495                     	;# 
   311  0496                     	;# 
   312  0497                     	;# 
   313  0498                     	;# 
   314  0499                     	;# 
   315  049A                     	;# 
   316  049B                     	;# 
   317  049C                     	;# 
   318  049D                     	;# 
   319  050C                     	;# 
   320  050C                     	;# 
   321  050D                     	;# 
   322  050E                     	;# 
   323  050F                     	;# 
   324  050F                     	;# 
   325  0510                     	;# 
   326  0511                     	;# 
   327  0512                     	;# 
   328  0512                     	;# 
   329  0513                     	;# 
   330  0514                     	;# 
   331  0515                     	;# 
   332  0515                     	;# 
   333  0516                     	;# 
   334  0517                     	;# 
   335  0518                     	;# 
   336  0519                     	;# 
   337  051A                     	;# 
   338  051B                     	;# 
   339  051C                     	;# 
   340  051D                     	;# 
   341  058C                     	;# 
   342  058C                     	;# 
   343  058D                     	;# 
   344  058E                     	;# 
   345  058F                     	;# 
   346  058F                     	;# 
   347  0590                     	;# 
   348  0591                     	;# 
   349  0592                     	;# 
   350  0593                     	;# 
   351  060C                     	;# 
   352  060D                     	;# 
   353  060E                     	;# 
   354  060F                     	;# 
   355  0610                     	;# 
   356  0611                     	;# 
   357  0612                     	;# 
   358  0613                     	;# 
   359  0614                     	;# 
   360  0616                     	;# 
   361  0617                     	;# 
   362  0618                     	;# 
   363  0619                     	;# 
   364  061A                     	;# 
   365  061B                     	;# 
   366  061C                     	;# 
   367  061D                     	;# 
   368  061E                     	;# 
   369  068C                     	;# 
   370  068D                     	;# 
   371  068E                     	;# 
   372  068F                     	;# 
   373  0690                     	;# 
   374  0691                     	;# 
   375  0692                     	;# 
   376  0693                     	;# 
   377  0694                     	;# 
   378  070C                     	;# 
   379  070D                     	;# 
   380  070E                     	;# 
   381  070F                     	;# 
   382  0710                     	;# 
   383  0711                     	;# 
   384  0712                     	;# 
   385  0713                     	;# 
   386  0714                     	;# 
   387  0716                     	;# 
   388  0717                     	;# 
   389  0718                     	;# 
   390  0719                     	;# 
   391  071A                     	;# 
   392  071B                     	;# 
   393  071C                     	;# 
   394  071D                     	;# 
   395  071E                     	;# 
   396  0796                     	;# 
   397  0797                     	;# 
   398  0798                     	;# 
   399  0799                     	;# 
   400  079A                     	;# 
   401  079B                     	;# 
   402  080C                     	;# 
   403  080D                     	;# 
   404  080E                     	;# 
   405  080F                     	;# 
   406  0810                     	;# 
   407  0811                     	;# 
   408  0812                     	;# 
   409  0813                     	;# 
   410  0814                     	;# 
   411  081A                     	;# 
   412  081B                     	;# 
   413  081C                     	;# 
   414  081D                     	;# 
   415  081E                     	;# 
   416  081F                     	;# 
   417  088C                     	;# 
   418  088D                     	;# 
   419  088E                     	;# 
   420  088F                     	;# 
   421  0890                     	;# 
   422  0891                     	;# 
   423  0892                     	;# 
   424  0893                     	;# 
   425  0895                     	;# 
   426  0896                     	;# 
   427  0897                     	;# 
   428  0898                     	;# 
   429  0899                     	;# 
   430  089A                     	;# 
   431  089B                     	;# 
   432  090C                     	;# 
   433  090E                     	;# 
   434  090F                     	;# 
   435  091F                     	;# 
   436  091F                     	;# 
   437  098F                     	;# 
   438  098F                     	;# 
   439  0990                     	;# 
   440  0991                     	;# 
   441  0992                     	;# 
   442  0993                     	;# 
   443  0994                     	;# 
   444  0995                     	;# 
   445  0996                     	;# 
   446  0997                     	;# 
   447  0E0F                     	;# 
   448  0E10                     	;# 
   449  0E11                     	;# 
   450  0E12                     	;# 
   451  0E13                     	;# 
   452  0E14                     	;# 
   453  0E15                     	;# 
   454  0E16                     	;# 
   455  0E17                     	;# 
   456  0E18                     	;# 
   457  0E19                     	;# 
   458  0E1A                     	;# 
   459  0E1B                     	;# 
   460  0E1C                     	;# 
   461  0E1D                     	;# 
   462  0E1E                     	;# 
   463  0E1F                     	;# 
   464  0E20                     	;# 
   465  0E21                     	;# 
   466  0E22                     	;# 
   467  0E23                     	;# 
   468  0E24                     	;# 
   469  0E25                     	;# 
   470  0E26                     	;# 
   471  0E27                     	;# 
   472  0E28                     	;# 
   473  0E29                     	;# 
   474  0E2A                     	;# 
   475  0E2B                     	;# 
   476  0E2C                     	;# 
   477  0E2D                     	;# 
   478  0E2E                     	;# 
   479  0E2F                     	;# 
   480  0E30                     	;# 
   481  0E31                     	;# 
   482  0E32                     	;# 
   483  0E33                     	;# 
   484  0E34                     	;# 
   485  0E35                     	;# 
   486  0E36                     	;# 
   487  0E37                     	;# 
   488  0E8F                     	;# 
   489  0E90                     	;# 
   490  0E91                     	;# 
   491  0E92                     	;# 
   492  0E93                     	;# 
   493  0E94                     	;# 
   494  0E95                     	;# 
   495  0E96                     	;# 
   496  0E97                     	;# 
   497  0E9C                     	;# 
   498  0E9D                     	;# 
   499  0E9E                     	;# 
   500  0EA1                     	;# 
   501  0EA2                     	;# 
   502  0EA3                     	;# 
   503  0EA4                     	;# 
   504  0EA5                     	;# 
   505  0EA9                     	;# 
   506  0EAA                     	;# 
   507  0EAB                     	;# 
   508  0EAC                     	;# 
   509  0EB1                     	;# 
   510  0EB2                     	;# 
   511  0EB3                     	;# 
   512  0EB8                     	;# 
   513  0EB9                     	;# 
   514  0EBA                     	;# 
   515  0EBB                     	;# 
   516  0EBC                     	;# 
   517  0EBD                     	;# 
   518  0EBE                     	;# 
   519  0EC3                     	;# 
   520  0EC5                     	;# 
   521  0EC6                     	;# 
   522  0EC7                     	;# 
   523  0EC8                     	;# 
   524  0EC9                     	;# 
   525  0ECA                     	;# 
   526  0ECB                     	;# 
   527  0ECC                     	;# 
   528  0F10                     	;# 
   529  0F11                     	;# 
   530  0F12                     	;# 
   531  0F13                     	;# 
   532  0F14                     	;# 
   533  0F15                     	;# 
   534  0F16                     	;# 
   535  0F17                     	;# 
   536  0F18                     	;# 
   537  0F19                     	;# 
   538  0F1A                     	;# 
   539  0F1B                     	;# 
   540  0F1C                     	;# 
   541  0F1D                     	;# 
   542  0F1E                     	;# 
   543  0F1F                     	;# 
   544  0F20                     	;# 
   545  0F21                     	;# 
   546  0F22                     	;# 
   547  0F23                     	;# 
   548  0F24                     	;# 
   549  0F25                     	;# 
   550  0F26                     	;# 
   551  0F27                     	;# 
   552  0F28                     	;# 
   553  0F29                     	;# 
   554  0F2A                     	;# 
   555  0F2B                     	;# 
   556  0F2C                     	;# 
   557  0F2D                     	;# 
   558  0F2E                     	;# 
   559  0F2F                     	;# 
   560  0F30                     	;# 
   561  0F31                     	;# 
   562  0F32                     	;# 
   563  0F38                     	;# 
   564  0F39                     	;# 
   565  0F3A                     	;# 
   566  0F3B                     	;# 
   567  0F3C                     	;# 
   568  0F3D                     	;# 
   569  0F3E                     	;# 
   570  0F3F                     	;# 
   571  0F40                     	;# 
   572  0F41                     	;# 
   573  0F43                     	;# 
   574  0F44                     	;# 
   575  0F45                     	;# 
   576  0F46                     	;# 
   577  0F47                     	;# 
   578  0F48                     	;# 
   579  0F49                     	;# 
   580  0F4A                     	;# 
   581  0F4B                     	;# 
   582  0F4C                     	;# 
   583  0F4E                     	;# 
   584  0F4F                     	;# 
   585  0F50                     	;# 
   586  0F51                     	;# 
   587  0F52                     	;# 
   588  0F53                     	;# 
   589  0F54                     	;# 
   590  0F55                     	;# 
   591  0F56                     	;# 
   592  0F57                     	;# 
   593  0F59                     	;# 
   594  0F5A                     	;# 
   595  0F5B                     	;# 
   596  0F5C                     	;# 
   597  0F5D                     	;# 
   598  0F61                     	;# 
   599  0F62                     	;# 
   600  0F64                     	;# 
   601  0F65                     	;# 
   602  0F66                     	;# 
   603  0F67                     	;# 
   604  0F68                     	;# 
   605  0F69                     	;# 
   606  0F6A                     	;# 
   607  0F6B                     	;# 
   608  0F6C                     	;# 
   609  0F6D                     	;# 
   610  0FE4                     	;# 
   611  0FE5                     	;# 
   612  0FE6                     	;# 
   613  0FE7                     	;# 
   614  0FE8                     	;# 
   615  0FE9                     	;# 
   616  0FEA                     	;# 
   617  0FEB                     	;# 
   618  0FED                     	;# 
   619  0FEE                     	;# 
   620  0FEF                     	;# 
   621  0000                     	;# 
   622  0001                     	;# 
   623  0002                     	;# 
   624  0003                     	;# 
   625  0004                     	;# 
   626  0005                     	;# 
   627  0006                     	;# 
   628  0007                     	;# 
   629  0008                     	;# 
   630  0009                     	;# 
   631  000A                     	;# 
   632  000B                     	;# 
   633  000C                     	;# 
   634  000D                     	;# 
   635  000E                     	;# 
   636  000F                     	;# 
   637  0010                     	;# 
   638  0011                     	;# 
   639  0012                     	;# 
   640  0013                     	;# 
   641  0014                     	;# 
   642  0015                     	;# 
   643  0016                     	;# 
   644  0017                     	;# 
   645  0018                     	;# 
   646  0019                     	;# 
   647  001A                     	;# 
   648  001C                     	;# 
   649  001C                     	;# 
   650  001D                     	;# 
   651  001D                     	;# 
   652  001E                     	;# 
   653  001F                     	;# 
   654  008C                     	;# 
   655  008C                     	;# 
   656  008D                     	;# 
   657  008E                     	;# 
   658  008E                     	;# 
   659  008F                     	;# 
   660  0090                     	;# 
   661  0090                     	;# 
   662  0091                     	;# 
   663  0093                     	;# 
   664  0094                     	;# 
   665  0095                     	;# 
   666  0096                     	;# 
   667  0097                     	;# 
   668  0098                     	;# 
   669  0099                     	;# 
   670  009A                     	;# 
   671  009B                     	;# 
   672  009C                     	;# 
   673  009D                     	;# 
   674  009E                     	;# 
   675  010C                     	;# 
   676  010D                     	;# 
   677  010E                     	;# 
   678  010E                     	;# 
   679  010F                     	;# 
   680  0110                     	;# 
   681  0110                     	;# 
   682  0111                     	;# 
   683  0112                     	;# 
   684  0112                     	;# 
   685  0113                     	;# 
   686  0114                     	;# 
   687  0114                     	;# 
   688  0115                     	;# 
   689  0116                     	;# 
   690  0116                     	;# 
   691  0117                     	;# 
   692  0119                     	;# 
   693  0119                     	;# 
   694  0119                     	;# 
   695  011A                     	;# 
   696  011A                     	;# 
   697  011A                     	;# 
   698  011B                     	;# 
   699  011B                     	;# 
   700  011B                     	;# 
   701  011B                     	;# 
   702  011B                     	;# 
   703  011C                     	;# 
   704  011C                     	;# 
   705  011C                     	;# 
   706  011D                     	;# 
   707  011D                     	;# 
   708  011D                     	;# 
   709  011E                     	;# 
   710  011E                     	;# 
   711  011E                     	;# 
   712  011F                     	;# 
   713  011F                     	;# 
   714  011F                     	;# 
   715  011F                     	;# 
   716  011F                     	;# 
   717  018C                     	;# 
   718  018D                     	;# 
   719  018E                     	;# 
   720  018F                     	;# 
   721  0190                     	;# 
   722  0191                     	;# 
   723  0192                     	;# 
   724  0196                     	;# 
   725  0197                     	;# 
   726  0198                     	;# 
   727  0199                     	;# 
   728  019A                     	;# 
   729  019B                     	;# 
   730  019C                     	;# 
   731  020C                     	;# 
   732  020C                     	;# 
   733  020D                     	;# 
   734  020E                     	;# 
   735  020F                     	;# 
   736  020F                     	;# 
   737  0210                     	;# 
   738  0210                     	;# 
   739  0211                     	;# 
   740  0211                     	;# 
   741  0212                     	;# 
   742  0212                     	;# 
   743  0213                     	;# 
   744  0214                     	;# 
   745  0215                     	;# 
   746  0215                     	;# 
   747  0216                     	;# 
   748  0216                     	;# 
   749  0217                     	;# 
   750  0217                     	;# 
   751  0218                     	;# 
   752  0218                     	;# 
   753  0219                     	;# 
   754  021A                     	;# 
   755  021B                     	;# 
   756  021B                     	;# 
   757  021C                     	;# 
   758  021C                     	;# 
   759  021D                     	;# 
   760  021D                     	;# 
   761  021E                     	;# 
   762  021F                     	;# 
   763  028C                     	;# 
   764  028C                     	;# 
   765  028D                     	;# 
   766  028D                     	;# 
   767  028E                     	;# 
   768  028F                     	;# 
   769  0290                     	;# 
   770  0290                     	;# 
   771  0291                     	;# 
   772  0292                     	;# 
   773  0292                     	;# 
   774  0293                     	;# 
   775  0293                     	;# 
   776  0294                     	;# 
   777  0295                     	;# 
   778  0296                     	;# 
   779  0296                     	;# 
   780  0297                     	;# 
   781  0298                     	;# 
   782  0298                     	;# 
   783  0299                     	;# 
   784  0299                     	;# 
   785  029A                     	;# 
   786  029B                     	;# 
   787  029C                     	;# 
   788  029C                     	;# 
   789  029D                     	;# 
   790  030C                     	;# 
   791  030C                     	;# 
   792  030D                     	;# 
   793  030E                     	;# 
   794  030F                     	;# 
   795  0310                     	;# 
   796  0310                     	;# 
   797  0311                     	;# 
   798  0312                     	;# 
   799  0313                     	;# 
   800  0314                     	;# 
   801  0314                     	;# 
   802  0315                     	;# 
   803  0316                     	;# 
   804  0317                     	;# 
   805  0318                     	;# 
   806  0318                     	;# 
   807  0319                     	;# 
   808  031A                     	;# 
   809  031B                     	;# 
   810  031C                     	;# 
   811  031C                     	;# 
   812  031D                     	;# 
   813  031E                     	;# 
   814  031F                     	;# 
   815  038C                     	;# 
   816  038C                     	;# 
   817  038D                     	;# 
   818  038E                     	;# 
   819  0390                     	;# 
   820  0390                     	;# 
   821  0391                     	;# 
   822  0392                     	;# 
   823  040C                     	;# 
   824  040D                     	;# 
   825  040E                     	;# 
   826  040F                     	;# 
   827  0410                     	;# 
   828  0411                     	;# 
   829  0416                     	;# 
   830  0416                     	;# 
   831  0417                     	;# 
   832  0418                     	;# 
   833  0418                     	;# 
   834  0419                     	;# 
   835  041A                     	;# 
   836  041A                     	;# 
   837  041B                     	;# 
   838  041C                     	;# 
   839  041C                     	;# 
   840  041D                     	;# 
   841  041E                     	;# 
   842  041F                     	;# 
   843  048C                     	;# 
   844  048C                     	;# 
   845  048D                     	;# 
   846  048E                     	;# 
   847  048F                     	;# 
   848  048F                     	;# 
   849  0490                     	;# 
   850  0491                     	;# 
   851  0492                     	;# 
   852  0492                     	;# 
   853  0493                     	;# 
   854  0494                     	;# 
   855  0495                     	;# 
   856  0495                     	;# 
   857  0496                     	;# 
   858  0497                     	;# 
   859  0498                     	;# 
   860  0499                     	;# 
   861  049A                     	;# 
   862  049B                     	;# 
   863  049C                     	;# 
   864  049D                     	;# 
   865  050C                     	;# 
   866  050C                     	;# 
   867  050D                     	;# 
   868  050E                     	;# 
   869  050F                     	;# 
   870  050F                     	;# 
   871  0510                     	;# 
   872  0511                     	;# 
   873  0512                     	;# 
   874  0512                     	;# 
   875  0513                     	;# 
   876  0514                     	;# 
   877  0515                     	;# 
   878  0515                     	;# 
   879  0516                     	;# 
   880  0517                     	;# 
   881  0518                     	;# 
   882  0519                     	;# 
   883  051A                     	;# 
   884  051B                     	;# 
   885  051C                     	;# 
   886  051D                     	;# 
   887  058C                     	;# 
   888  058C                     	;# 
   889  058D                     	;# 
   890  058E                     	;# 
   891  058F                     	;# 
   892  058F                     	;# 
   893  0590                     	;# 
   894  0591                     	;# 
   895  0592                     	;# 
   896  0593                     	;# 
   897  060C                     	;# 
   898  060D                     	;# 
   899  060E                     	;# 
   900  060F                     	;# 
   901  0610                     	;# 
   902  0611                     	;# 
   903  0612                     	;# 
   904  0613                     	;# 
   905  0614                     	;# 
   906  0616                     	;# 
   907  0617                     	;# 
   908  0618                     	;# 
   909  0619                     	;# 
   910  061A                     	;# 
   911  061B                     	;# 
   912  061C                     	;# 
   913  061D                     	;# 
   914  061E                     	;# 
   915  068C                     	;# 
   916  068D                     	;# 
   917  068E                     	;# 
   918  068F                     	;# 
   919  0690                     	;# 
   920  0691                     	;# 
   921  0692                     	;# 
   922  0693                     	;# 
   923  0694                     	;# 
   924  070C                     	;# 
   925  070D                     	;# 
   926  070E                     	;# 
   927  070F                     	;# 
   928  0710                     	;# 
   929  0711                     	;# 
   930  0712                     	;# 
   931  0713                     	;# 
   932  0714                     	;# 
   933  0716                     	;# 
   934  0717                     	;# 
   935  0718                     	;# 
   936  0719                     	;# 
   937  071A                     	;# 
   938  071B                     	;# 
   939  071C                     	;# 
   940  071D                     	;# 
   941  071E                     	;# 
   942  0796                     	;# 
   943  0797                     	;# 
   944  0798                     	;# 
   945  0799                     	;# 
   946  079A                     	;# 
   947  079B                     	;# 
   948  080C                     	;# 
   949  080D                     	;# 
   950  080E                     	;# 
   951  080F                     	;# 
   952  0810                     	;# 
   953  0811                     	;# 
   954  0812                     	;# 
   955  0813                     	;# 
   956  0814                     	;# 
   957  081A                     	;# 
   958  081B                     	;# 
   959  081C                     	;# 
   960  081D                     	;# 
   961  081E                     	;# 
   962  081F                     	;# 
   963  088C                     	;# 
   964  088D                     	;# 
   965  088E                     	;# 
   966  088F                     	;# 
   967  0890                     	;# 
   968  0891                     	;# 
   969  0892                     	;# 
   970  0893                     	;# 
   971  0895                     	;# 
   972  0896                     	;# 
   973  0897                     	;# 
   974  0898                     	;# 
   975  0899                     	;# 
   976  089A                     	;# 
   977  089B                     	;# 
   978  090C                     	;# 
   979  090E                     	;# 
   980  090F                     	;# 
   981  091F                     	;# 
   982  091F                     	;# 
   983  098F                     	;# 
   984  098F                     	;# 
   985  0990                     	;# 
   986  0991                     	;# 
   987  0992                     	;# 
   988  0993                     	;# 
   989  0994                     	;# 
   990  0995                     	;# 
   991  0996                     	;# 
   992  0997                     	;# 
   993  0E0F                     	;# 
   994  0E10                     	;# 
   995  0E11                     	;# 
   996  0E12                     	;# 
   997  0E13                     	;# 
   998  0E14                     	;# 
   999  0E15                     	;# 
  1000  0E16                     	;# 
  1001  0E17                     	;# 
  1002  0E18                     	;# 
  1003  0E19                     	;# 
  1004  0E1A                     	;# 
  1005  0E1B                     	;# 
  1006  0E1C                     	;# 
  1007  0E1D                     	;# 
  1008  0E1E                     	;# 
  1009  0E1F                     	;# 
  1010  0E20                     	;# 
  1011  0E21                     	;# 
  1012  0E22                     	;# 
  1013  0E23                     	;# 
  1014  0E24                     	;# 
  1015  0E25                     	;# 
  1016  0E26                     	;# 
  1017  0E27                     	;# 
  1018  0E28                     	;# 
  1019  0E29                     	;# 
  1020  0E2A                     	;# 
  1021  0E2B                     	;# 
  1022  0E2C                     	;# 
  1023  0E2D                     	;# 
  1024  0E2E                     	;# 
  1025  0E2F                     	;# 
  1026  0E30                     	;# 
  1027  0E31                     	;# 
  1028  0E32                     	;# 
  1029  0E33                     	;# 
  1030  0E34                     	;# 
  1031  0E35                     	;# 
  1032  0E36                     	;# 
  1033  0E37                     	;# 
  1034  0E8F                     	;# 
  1035  0E90                     	;# 
  1036  0E91                     	;# 
  1037  0E92                     	;# 
  1038  0E93                     	;# 
  1039  0E94                     	;# 
  1040  0E95                     	;# 
  1041  0E96                     	;# 
  1042  0E97                     	;# 
  1043  0E9C                     	;# 
  1044  0E9D                     	;# 
  1045  0E9E                     	;# 
  1046  0EA1                     	;# 
  1047  0EA2                     	;# 
  1048  0EA3                     	;# 
  1049  0EA4                     	;# 
  1050  0EA5                     	;# 
  1051  0EA9                     	;# 
  1052  0EAA                     	;# 
  1053  0EAB                     	;# 
  1054  0EAC                     	;# 
  1055  0EB1                     	;# 
  1056  0EB2                     	;# 
  1057  0EB3                     	;# 
  1058  0EB8                     	;# 
  1059  0EB9                     	;# 
  1060  0EBA                     	;# 
  1061  0EBB                     	;# 
  1062  0EBC                     	;# 
  1063  0EBD                     	;# 
  1064  0EBE                     	;# 
  1065  0EC3                     	;# 
  1066  0EC5                     	;# 
  1067  0EC6                     	;# 
  1068  0EC7                     	;# 
  1069  0EC8                     	;# 
  1070  0EC9                     	;# 
  1071  0ECA                     	;# 
  1072  0ECB                     	;# 
  1073  0ECC                     	;# 
  1074  0F10                     	;# 
  1075  0F11                     	;# 
  1076  0F12                     	;# 
  1077  0F13                     	;# 
  1078  0F14                     	;# 
  1079  0F15                     	;# 
  1080  0F16                     	;# 
  1081  0F17                     	;# 
  1082  0F18                     	;# 
  1083  0F19                     	;# 
  1084  0F1A                     	;# 
  1085  0F1B                     	;# 
  1086  0F1C                     	;# 
  1087  0F1D                     	;# 
  1088  0F1E                     	;# 
  1089  0F1F                     	;# 
  1090  0F20                     	;# 
  1091  0F21                     	;# 
  1092  0F22                     	;# 
  1093  0F23                     	;# 
  1094  0F24                     	;# 
  1095  0F25                     	;# 
  1096  0F26                     	;# 
  1097  0F27                     	;# 
  1098  0F28                     	;# 
  1099  0F29                     	;# 
  1100  0F2A                     	;# 
  1101  0F2B                     	;# 
  1102  0F2C                     	;# 
  1103  0F2D                     	;# 
  1104  0F2E                     	;# 
  1105  0F2F                     	;# 
  1106  0F30                     	;# 
  1107  0F31                     	;# 
  1108  0F32                     	;# 
  1109  0F38                     	;# 
  1110  0F39                     	;# 
  1111  0F3A                     	;# 
  1112  0F3B                     	;# 
  1113  0F3C                     	;# 
  1114  0F3D                     	;# 
  1115  0F3E                     	;# 
  1116  0F3F                     	;# 
  1117  0F40                     	;# 
  1118  0F41                     	;# 
  1119  0F43                     	;# 
  1120  0F44                     	;# 
  1121  0F45                     	;# 
  1122  0F46                     	;# 
  1123  0F47                     	;# 
  1124  0F48                     	;# 
  1125  0F49                     	;# 
  1126  0F4A                     	;# 
  1127  0F4B                     	;# 
  1128  0F4C                     	;# 
  1129  0F4E                     	;# 
  1130  0F4F                     	;# 
  1131  0F50                     	;# 
  1132  0F51                     	;# 
  1133  0F52                     	;# 
  1134  0F53                     	;# 
  1135  0F54                     	;# 
  1136  0F55                     	;# 
  1137  0F56                     	;# 
  1138  0F57                     	;# 
  1139  0F59                     	;# 
  1140  0F5A                     	;# 
  1141  0F5B                     	;# 
  1142  0F5C                     	;# 
  1143  0F5D                     	;# 
  1144  0F61                     	;# 
  1145  0F62                     	;# 
  1146  0F64                     	;# 
  1147  0F65                     	;# 
  1148  0F66                     	;# 
  1149  0F67                     	;# 
  1150  0F68                     	;# 
  1151  0F69                     	;# 
  1152  0F6A                     	;# 
  1153  0F6B                     	;# 
  1154  0F6C                     	;# 
  1155  0F6D                     	;# 
  1156  0FE4                     	;# 
  1157  0FE5                     	;# 
  1158  0FE6                     	;# 
  1159  0FE7                     	;# 
  1160  0FE8                     	;# 
  1161  0FE9                     	;# 
  1162  0FEA                     	;# 
  1163  0FEB                     	;# 
  1164  0FED                     	;# 
  1165  0FEE                     	;# 
  1166  0FEF                     	;# 
  1167  0000                     	;# 
  1168  0001                     	;# 
  1169  0002                     	;# 
  1170  0003                     	;# 
  1171  0004                     	;# 
  1172  0005                     	;# 
  1173  0006                     	;# 
  1174  0007                     	;# 
  1175  0008                     	;# 
  1176  0009                     	;# 
  1177  000A                     	;# 
  1178  000B                     	;# 
  1179  000C                     	;# 
  1180  000D                     	;# 
  1181  000E                     	;# 
  1182  000F                     	;# 
  1183  0010                     	;# 
  1184  0011                     	;# 
  1185  0012                     	;# 
  1186  0013                     	;# 
  1187  0014                     	;# 
  1188  0015                     	;# 
  1189  0016                     	;# 
  1190  0017                     	;# 
  1191  0018                     	;# 
  1192  0019                     	;# 
  1193  001A                     	;# 
  1194  001C                     	;# 
  1195  001C                     	;# 
  1196  001D                     	;# 
  1197  001D                     	;# 
  1198  001E                     	;# 
  1199  001F                     	;# 
  1200  008C                     	;# 
  1201  008C                     	;# 
  1202  008D                     	;# 
  1203  008E                     	;# 
  1204  008E                     	;# 
  1205  008F                     	;# 
  1206  0090                     	;# 
  1207  0090                     	;# 
  1208  0091                     	;# 
  1209  0093                     	;# 
  1210  0094                     	;# 
  1211  0095                     	;# 
  1212  0096                     	;# 
  1213  0097                     	;# 
  1214  0098                     	;# 
  1215  0099                     	;# 
  1216  009A                     	;# 
  1217  009B                     	;# 
  1218  009C                     	;# 
  1219  009D                     	;# 
  1220  009E                     	;# 
  1221  010C                     	;# 
  1222  010D                     	;# 
  1223  010E                     	;# 
  1224  010E                     	;# 
  1225  010F                     	;# 
  1226  0110                     	;# 
  1227  0110                     	;# 
  1228  0111                     	;# 
  1229  0112                     	;# 
  1230  0112                     	;# 
  1231  0113                     	;# 
  1232  0114                     	;# 
  1233  0114                     	;# 
  1234  0115                     	;# 
  1235  0116                     	;# 
  1236  0116                     	;# 
  1237  0117                     	;# 
  1238  0119                     	;# 
  1239  0119                     	;# 
  1240  0119                     	;# 
  1241  011A                     	;# 
  1242  011A                     	;# 
  1243  011A                     	;# 
  1244  011B                     	;# 
  1245  011B                     	;# 
  1246  011B                     	;# 
  1247  011B                     	;# 
  1248  011B                     	;# 
  1249  011C                     	;# 
  1250  011C                     	;# 
  1251  011C                     	;# 
  1252  011D                     	;# 
  1253  011D                     	;# 
  1254  011D                     	;# 
  1255  011E                     	;# 
  1256  011E                     	;# 
  1257  011E                     	;# 
  1258  011F                     	;# 
  1259  011F                     	;# 
  1260  011F                     	;# 
  1261  011F                     	;# 
  1262  011F                     	;# 
  1263  018C                     	;# 
  1264  018D                     	;# 
  1265  018E                     	;# 
  1266  018F                     	;# 
  1267  0190                     	;# 
  1268  0191                     	;# 
  1269  0192                     	;# 
  1270  0196                     	;# 
  1271  0197                     	;# 
  1272  0198                     	;# 
  1273  0199                     	;# 
  1274  019A                     	;# 
  1275  019B                     	;# 
  1276  019C                     	;# 
  1277  020C                     	;# 
  1278  020C                     	;# 
  1279  020D                     	;# 
  1280  020E                     	;# 
  1281  020F                     	;# 
  1282  020F                     	;# 
  1283  0210                     	;# 
  1284  0210                     	;# 
  1285  0211                     	;# 
  1286  0211                     	;# 
  1287  0212                     	;# 
  1288  0212                     	;# 
  1289  0213                     	;# 
  1290  0214                     	;# 
  1291  0215                     	;# 
  1292  0215                     	;# 
  1293  0216                     	;# 
  1294  0216                     	;# 
  1295  0217                     	;# 
  1296  0217                     	;# 
  1297  0218                     	;# 
  1298  0218                     	;# 
  1299  0219                     	;# 
  1300  021A                     	;# 
  1301  021B                     	;# 
  1302  021B                     	;# 
  1303  021C                     	;# 
  1304  021C                     	;# 
  1305  021D                     	;# 
  1306  021D                     	;# 
  1307  021E                     	;# 
  1308  021F                     	;# 
  1309  028C                     	;# 
  1310  028C                     	;# 
  1311  028D                     	;# 
  1312  028D                     	;# 
  1313  028E                     	;# 
  1314  028F                     	;# 
  1315  0290                     	;# 
  1316  0290                     	;# 
  1317  0291                     	;# 
  1318  0292                     	;# 
  1319  0292                     	;# 
  1320  0293                     	;# 
  1321  0293                     	;# 
  1322  0294                     	;# 
  1323  0295                     	;# 
  1324  0296                     	;# 
  1325  0296                     	;# 
  1326  0297                     	;# 
  1327  0298                     	;# 
  1328  0298                     	;# 
  1329  0299                     	;# 
  1330  0299                     	;# 
  1331  029A                     	;# 
  1332  029B                     	;# 
  1333  029C                     	;# 
  1334  029C                     	;# 
  1335  029D                     	;# 
  1336  030C                     	;# 
  1337  030C                     	;# 
  1338  030D                     	;# 
  1339  030E                     	;# 
  1340  030F                     	;# 
  1341  0310                     	;# 
  1342  0310                     	;# 
  1343  0311                     	;# 
  1344  0312                     	;# 
  1345  0313                     	;# 
  1346  0314                     	;# 
  1347  0314                     	;# 
  1348  0315                     	;# 
  1349  0316                     	;# 
  1350  0317                     	;# 
  1351  0318                     	;# 
  1352  0318                     	;# 
  1353  0319                     	;# 
  1354  031A                     	;# 
  1355  031B                     	;# 
  1356  031C                     	;# 
  1357  031C                     	;# 
  1358  031D                     	;# 
  1359  031E                     	;# 
  1360  031F                     	;# 
  1361  038C                     	;# 
  1362  038C                     	;# 
  1363  038D                     	;# 
  1364  038E                     	;# 
  1365  0390                     	;# 
  1366  0390                     	;# 
  1367  0391                     	;# 
  1368  0392                     	;# 
  1369  040C                     	;# 
  1370  040D                     	;# 
  1371  040E                     	;# 
  1372  040F                     	;# 
  1373  0410                     	;# 
  1374  0411                     	;# 
  1375  0416                     	;# 
  1376  0416                     	;# 
  1377  0417                     	;# 
  1378  0418                     	;# 
  1379  0418                     	;# 
  1380  0419                     	;# 
  1381  041A                     	;# 
  1382  041A                     	;# 
  1383  041B                     	;# 
  1384  041C                     	;# 
  1385  041C                     	;# 
  1386  041D                     	;# 
  1387  041E                     	;# 
  1388  041F                     	;# 
  1389  048C                     	;# 
  1390  048C                     	;# 
  1391  048D                     	;# 
  1392  048E                     	;# 
  1393  048F                     	;# 
  1394  048F                     	;# 
  1395  0490                     	;# 
  1396  0491                     	;# 
  1397  0492                     	;# 
  1398  0492                     	;# 
  1399  0493                     	;# 
  1400  0494                     	;# 
  1401  0495                     	;# 
  1402  0495                     	;# 
  1403  0496                     	;# 
  1404  0497                     	;# 
  1405  0498                     	;# 
  1406  0499                     	;# 
  1407  049A                     	;# 
  1408  049B                     	;# 
  1409  049C                     	;# 
  1410  049D                     	;# 
  1411  050C                     	;# 
  1412  050C                     	;# 
  1413  050D                     	;# 
  1414  050E                     	;# 
  1415  050F                     	;# 
  1416  050F                     	;# 
  1417  0510                     	;# 
  1418  0511                     	;# 
  1419  0512                     	;# 
  1420  0512                     	;# 
  1421  0513                     	;# 
  1422  0514                     	;# 
  1423  0515                     	;# 
  1424  0515                     	;# 
  1425  0516                     	;# 
  1426  0517                     	;# 
  1427  0518                     	;# 
  1428  0519                     	;# 
  1429  051A                     	;# 
  1430  051B                     	;# 
  1431  051C                     	;# 
  1432  051D                     	;# 
  1433  058C                     	;# 
  1434  058C                     	;# 
  1435  058D                     	;# 
  1436  058E                     	;# 
  1437  058F                     	;# 
  1438  058F                     	;# 
  1439  0590                     	;# 
  1440  0591                     	;# 
  1441  0592                     	;# 
  1442  0593                     	;# 
  1443  060C                     	;# 
  1444  060D                     	;# 
  1445  060E                     	;# 
  1446  060F                     	;# 
  1447  0610                     	;# 
  1448  0611                     	;# 
  1449  0612                     	;# 
  1450  0613                     	;# 
  1451  0614                     	;# 
  1452  0616                     	;# 
  1453  0617                     	;# 
  1454  0618                     	;# 
  1455  0619                     	;# 
  1456  061A                     	;# 
  1457  061B                     	;# 
  1458  061C                     	;# 
  1459  061D                     	;# 
  1460  061E                     	;# 
  1461  068C                     	;# 
  1462  068D                     	;# 
  1463  068E                     	;# 
  1464  068F                     	;# 
  1465  0690                     	;# 
  1466  0691                     	;# 
  1467  0692                     	;# 
  1468  0693                     	;# 
  1469  0694                     	;# 
  1470  070C                     	;# 
  1471  070D                     	;# 
  1472  070E                     	;# 
  1473  070F                     	;# 
  1474  0710                     	;# 
  1475  0711                     	;# 
  1476  0712                     	;# 
  1477  0713                     	;# 
  1478  0714                     	;# 
  1479  0716                     	;# 
  1480  0717                     	;# 
  1481  0718                     	;# 
  1482  0719                     	;# 
  1483  071A                     	;# 
  1484  071B                     	;# 
  1485  071C                     	;# 
  1486  071D                     	;# 
  1487  071E                     	;# 
  1488  0796                     	;# 
  1489  0797                     	;# 
  1490  0798                     	;# 
  1491  0799                     	;# 
  1492  079A                     	;# 
  1493  079B                     	;# 
  1494  080C                     	;# 
  1495  080D                     	;# 
  1496  080E                     	;# 
  1497  080F                     	;# 
  1498  0810                     	;# 
  1499  0811                     	;# 
  1500  0812                     	;# 
  1501  0813                     	;# 
  1502  0814                     	;# 
  1503  081A                     	;# 
  1504  081B                     	;# 
  1505  081C                     	;# 
  1506  081D                     	;# 
  1507  081E                     	;# 
  1508  081F                     	;# 
  1509  088C                     	;# 
  1510  088D                     	;# 
  1511  088E                     	;# 
  1512  088F                     	;# 
  1513  0890                     	;# 
  1514  0891                     	;# 
  1515  0892                     	;# 
  1516  0893                     	;# 
  1517  0895                     	;# 
  1518  0896                     	;# 
  1519  0897                     	;# 
  1520  0898                     	;# 
  1521  0899                     	;# 
  1522  089A                     	;# 
  1523  089B                     	;# 
  1524  090C                     	;# 
  1525  090E                     	;# 
  1526  090F                     	;# 
  1527  091F                     	;# 
  1528  091F                     	;# 
  1529  098F                     	;# 
  1530  098F                     	;# 
  1531  0990                     	;# 
  1532  0991                     	;# 
  1533  0992                     	;# 
  1534  0993                     	;# 
  1535  0994                     	;# 
  1536  0995                     	;# 
  1537  0996                     	;# 
  1538  0997                     	;# 
  1539  0E0F                     	;# 
  1540  0E10                     	;# 
  1541  0E11                     	;# 
  1542  0E12                     	;# 
  1543  0E13                     	;# 
  1544  0E14                     	;# 
  1545  0E15                     	;# 
  1546  0E16                     	;# 
  1547  0E17                     	;# 
  1548  0E18                     	;# 
  1549  0E19                     	;# 
  1550  0E1A                     	;# 
  1551  0E1B                     	;# 
  1552  0E1C                     	;# 
  1553  0E1D                     	;# 
  1554  0E1E                     	;# 
  1555  0E1F                     	;# 
  1556  0E20                     	;# 
  1557  0E21                     	;# 
  1558  0E22                     	;# 
  1559  0E23                     	;# 
  1560  0E24                     	;# 
  1561  0E25                     	;# 
  1562  0E26                     	;# 
  1563  0E27                     	;# 
  1564  0E28                     	;# 
  1565  0E29                     	;# 
  1566  0E2A                     	;# 
  1567  0E2B                     	;# 
  1568  0E2C                     	;# 
  1569  0E2D                     	;# 
  1570  0E2E                     	;# 
  1571  0E2F                     	;# 
  1572  0E30                     	;# 
  1573  0E31                     	;# 
  1574  0E32                     	;# 
  1575  0E33                     	;# 
  1576  0E34                     	;# 
  1577  0E35                     	;# 
  1578  0E36                     	;# 
  1579  0E37                     	;# 
  1580  0E8F                     	;# 
  1581  0E90                     	;# 
  1582  0E91                     	;# 
  1583  0E92                     	;# 
  1584  0E93                     	;# 
  1585  0E94                     	;# 
  1586  0E95                     	;# 
  1587  0E96                     	;# 
  1588  0E97                     	;# 
  1589  0E9C                     	;# 
  1590  0E9D                     	;# 
  1591  0E9E                     	;# 
  1592  0EA1                     	;# 
  1593  0EA2                     	;# 
  1594  0EA3                     	;# 
  1595  0EA4                     	;# 
  1596  0EA5                     	;# 
  1597  0EA9                     	;# 
  1598  0EAA                     	;# 
  1599  0EAB                     	;# 
  1600  0EAC                     	;# 
  1601  0EB1                     	;# 
  1602  0EB2                     	;# 
  1603  0EB3                     	;# 
  1604  0EB8                     	;# 
  1605  0EB9                     	;# 
  1606  0EBA                     	;# 
  1607  0EBB                     	;# 
  1608  0EBC                     	;# 
  1609  0EBD                     	;# 
  1610  0EBE                     	;# 
  1611  0EC3                     	;# 
  1612  0EC5                     	;# 
  1613  0EC6                     	;# 
  1614  0EC7                     	;# 
  1615  0EC8                     	;# 
  1616  0EC9                     	;# 
  1617  0ECA                     	;# 
  1618  0ECB                     	;# 
  1619  0ECC                     	;# 
  1620  0F10                     	;# 
  1621  0F11                     	;# 
  1622  0F12                     	;# 
  1623  0F13                     	;# 
  1624  0F14                     	;# 
  1625  0F15                     	;# 
  1626  0F16                     	;# 
  1627  0F17                     	;# 
  1628  0F18                     	;# 
  1629  0F19                     	;# 
  1630  0F1A                     	;# 
  1631  0F1B                     	;# 
  1632  0F1C                     	;# 
  1633  0F1D                     	;# 
  1634  0F1E                     	;# 
  1635  0F1F                     	;# 
  1636  0F20                     	;# 
  1637  0F21                     	;# 
  1638  0F22                     	;# 
  1639  0F23                     	;# 
  1640  0F24                     	;# 
  1641  0F25                     	;# 
  1642  0F26                     	;# 
  1643  0F27                     	;# 
  1644  0F28                     	;# 
  1645  0F29                     	;# 
  1646  0F2A                     	;# 
  1647  0F2B                     	;# 
  1648  0F2C                     	;# 
  1649  0F2D                     	;# 
  1650  0F2E                     	;# 
  1651  0F2F                     	;# 
  1652  0F30                     	;# 
  1653  0F31                     	;# 
  1654  0F32                     	;# 
  1655  0F38                     	;# 
  1656  0F39                     	;# 
  1657  0F3A                     	;# 
  1658  0F3B                     	;# 
  1659  0F3C                     	;# 
  1660  0F3D                     	;# 
  1661  0F3E                     	;# 
  1662  0F3F                     	;# 
  1663  0F40                     	;# 
  1664  0F41                     	;# 
  1665  0F43                     	;# 
  1666  0F44                     	;# 
  1667  0F45                     	;# 
  1668  0F46                     	;# 
  1669  0F47                     	;# 
  1670  0F48                     	;# 
  1671  0F49                     	;# 
  1672  0F4A                     	;# 
  1673  0F4B                     	;# 
  1674  0F4C                     	;# 
  1675  0F4E                     	;# 
  1676  0F4F                     	;# 
  1677  0F50                     	;# 
  1678  0F51                     	;# 
  1679  0F52                     	;# 
  1680  0F53                     	;# 
  1681  0F54                     	;# 
  1682  0F55                     	;# 
  1683  0F56                     	;# 
  1684  0F57                     	;# 
  1685  0F59                     	;# 
  1686  0F5A                     	;# 
  1687  0F5B                     	;# 
  1688  0F5C                     	;# 
  1689  0F5D                     	;# 
  1690  0F61                     	;# 
  1691  0F62                     	;# 
  1692  0F64                     	;# 
  1693  0F65                     	;# 
  1694  0F66                     	;# 
  1695  0F67                     	;# 
  1696  0F68                     	;# 
  1697  0F69                     	;# 
  1698  0F6A                     	;# 
  1699  0F6B                     	;# 
  1700  0F6C                     	;# 
  1701  0F6D                     	;# 
  1702  0FE4                     	;# 
  1703  0FE5                     	;# 
  1704  0FE6                     	;# 
  1705  0FE7                     	;# 
  1706  0FE8                     	;# 
  1707  0FE9                     	;# 
  1708  0FEA                     	;# 
  1709  0FEB                     	;# 
  1710  0FED                     	;# 
  1711  0FEE                     	;# 
  1712  0FEF                     	;# 
  1713                           
  1714                           	psect	idataCOMMON
  1715  0231                     __pidataCOMMON:
  1716                           
  1717                           ;initializer for _x
  1718  0231  340A               	retlw	10
  1719  0232  3400               	retlw	0
  1720                           
  1721                           ;initializer for _l
  1722  0233  3401               	retlw	1
  1723  0234  3400               	retlw	0
  1724                           
  1725                           ;initializer for _k
  1726  0235  3401               	retlw	1
  1727  0236  3400               	retlw	0
  1728                           
  1729                           ;initializer for _j
  1730  0237  3401               	retlw	1
  1731  0238  3400               	retlw	0
  1732                           
  1733                           	psect	idataBANK0
  1734  026D                     __pidataBANK0:
  1735                           
  1736                           ;initializer for _dh
  1737  026D  3401               	retlw	1
  1738  026E  3400               	retlw	0
  1739                           
  1740                           ;initializer for _h
  1741  026F  3401               	retlw	1
  1742  0270  3400               	retlw	0
  1743                           
  1744                           	psect	nvBANK0
  1745  0020                     __pnvBANK0:
  1746  0020                     _IOCCF3_InterruptHandler:
  1747  0020                     	ds	2
  1748  0022                     _IOCCF2_InterruptHandler:
  1749  0022                     	ds	2
  1750  0024                     _IOCAF2_InterruptHandler:
  1751  0024                     	ds	2
  1752  0026                     _IOCAF1_InterruptHandler:
  1753  0026                     	ds	2
  1754  0028                     _IOCAF0_InterruptHandler:
  1755  0028                     	ds	2
  1756  002A                     _TMR0_InterruptHandler:
  1757  002A                     	ds	2
  1758  0017                     _LATB	set	23
  1759  001E                     _T0CON0	set	30
  1760  000B                     _INTCONbits	set	11
  1761  001C                     _TMR0L	set	28
  1762  001F                     _T0CON1	set	31
  1763  0014                     _TRISD	set	20
  1764  0013                     _TRISC	set	19
  1765  0012                     _TRISB	set	18
  1766  0011                     _TRISA	set	17
  1767  0015                     _TRISE	set	21
  1768  001D                     _TMR0H	set	29
  1769  0716                     _PIE0bits	set	1814
  1770  070C                     _PIR0bits	set	1804
  1771  0892                     _OSCTUNE	set	2194
  1772  0893                     _OSCFRQ	set	2195
  1773  0891                     _OSCEN	set	2193
  1774  088F                     _OSCCON3	set	2191
  1775  088D                     _OSCCON1	set	2189
  1776  0F53                     _IOCCPbits	set	3923
  1777  0F54                     _IOCCNbits	set	3924
  1778  0F3D                     _IOCAPbits	set	3901
  1779  0F3E                     _IOCANbits	set	3902
  1780  0F38                     _ANSELA	set	3896
  1781  0F64                     _ANSELE	set	3940
  1782  0F43                     _ANSELB	set	3907
  1783  0F4E                     _ANSELC	set	3918
  1784  0F59                     _ANSELD	set	3929
  1785  0F55                     _IOCCFbits	set	3925
  1786  0F3F                     _IOCAFbits	set	3903
  1787                           
  1788                           	psect	cinit
  1789  0022                     start_initialization:	
  1790                           ; #config settings
  1791                           
  1792  0022                     __initialization:
  1793                           
  1794                           ; Initialize objects allocated to COMMON
  1795  0022  3031               	movlw	low __pidataCOMMON
  1796  0023  0084               	movwf	4
  1797  0024  3082               	movlw	(high __pidataCOMMON)| (0+128)
  1798  0025  0085               	movwf	5
  1799  0026  3070               	movlw	low __pdataCOMMON
  1800  0027  0086               	movwf	6
  1801  0028  3000               	movlw	high __pdataCOMMON
  1802  0029  0087               	movwf	7
  1803  002A  3008               	movlw	8
  1804  002B  3182  2239  3180   	fcall	init_ram
  1805                           
  1806                           ; Initialize objects allocated to BANK0
  1807  002E  306D               	movlw	low __pidataBANK0
  1808  002F  0084               	movwf	4
  1809  0030  3082               	movlw	(high __pidataBANK0)| (0+128)
  1810  0031  0085               	movwf	5
  1811  0032  302C               	movlw	low __pdataBANK0
  1812  0033  0086               	movwf	6
  1813  0034  3000               	movlw	high __pdataBANK0
  1814  0035  0087               	movwf	7
  1815  0036  3004               	movlw	4
  1816  0037  3182  2239  3180   	fcall	init_ram
  1817                           
  1818                           ; Clear objects allocated to COMMON
  1819  003A  01FB               	clrf	__pbssCOMMON& (0+127)
  1820  003B  01FC               	clrf	(__pbssCOMMON+1)& (0+127)
  1821  003C                     end_of_initialization:	
  1822                           ;End of C runtime variable initialization code
  1823                           
  1824  003C                     __end_of__initialization:
  1825  003C  107E               	bcf	int$flags,0	;clear compiler interrupt flag (level 1)
  1826  003D  0020               	movlb	0
  1827  003E  3180  2840         	ljmp	_main	;jump to C main() function
  1828                           
  1829                           	psect	bssCOMMON
  1830  007B                     __pbssCOMMON:
  1831  007B                     _i:
  1832  007B                     	ds	2
  1833                           
  1834                           	psect	dataCOMMON
  1835  0070                     __pdataCOMMON:
  1836  0070                     _x:
  1837  0070                     	ds	2
  1838  0072                     _l:
  1839  0072                     	ds	2
  1840  0074                     _k:
  1841  0074                     	ds	2
  1842  0076                     _j:
  1843  0076                     	ds	2
  1844                           
  1845                           	psect	dataBANK0
  1846  002C                     __pdataBANK0:
  1847  002C                     _dh:
  1848  002C                     	ds	2
  1849  002E                     _h:
  1850  002E                     	ds	2
  1851                           
  1852                           	psect	inittext
  1853  0239                     init_ram:
  1854  0239  00FE               	movwf	btemp
  1855  023A                     initloop:
  1856  023A  0012               	moviw fsr0++
  1857  023B  001E               	movwi fsr1++
  1858  023C  0BFE               	decfsz	btemp,f
  1859  023D  2A3A               	goto	initloop
  1860  023E  3400               	retlw	0
  1861                           
  1862                           	psect	cstackCOMMON
  1863  0078                     __pcstackCOMMON:
  1864  0078                     ?_IOCAF0_ISR:
  1865  0078                     ??_IOCAF0_ISR:	
  1866                           ; 1 bytes @ 0x0
  1867                           
  1868  0078                     ?_IOCAF1_ISR:	
  1869                           ; 1 bytes @ 0x0
  1870                           
  1871  0078                     ??_IOCAF1_ISR:	
  1872                           ; 1 bytes @ 0x0
  1873                           
  1874  0078                     ?_IOCAF2_ISR:	
  1875                           ; 1 bytes @ 0x0
  1876                           
  1877  0078                     ??_IOCAF2_ISR:	
  1878                           ; 1 bytes @ 0x0
  1879                           
  1880  0078                     ?_IOCCF2_ISR:	
  1881                           ; 1 bytes @ 0x0
  1882                           
  1883  0078                     ?_IOCCF3_ISR:	
  1884                           ; 1 bytes @ 0x0
  1885                           
  1886  0078                     ?_PIN_MANAGER_IOC:	
  1887                           ; 1 bytes @ 0x0
  1888                           
  1889  0078                     ?_IOCAF0_DefaultInterruptHandler:	
  1890                           ; 1 bytes @ 0x0
  1891                           
  1892  0078                     ??_IOCAF0_DefaultInterruptHandler:	
  1893                           ; 1 bytes @ 0x0
  1894                           
  1895  0078                     ?_IOCAF1_DefaultInterruptHandler:	
  1896                           ; 1 bytes @ 0x0
  1897                           
  1898  0078                     ??_IOCAF1_DefaultInterruptHandler:	
  1899                           ; 1 bytes @ 0x0
  1900                           
  1901  0078                     ?_IOCAF2_DefaultInterruptHandler:	
  1902                           ; 1 bytes @ 0x0
  1903                           
  1904  0078                     ??_IOCAF2_DefaultInterruptHandler:	
  1905                           ; 1 bytes @ 0x0
  1906                           
  1907  0078                     ?_IOCCF2_DefaultInterruptHandler:	
  1908                           ; 1 bytes @ 0x0
  1909                           
  1910  0078                     ??_IOCCF2_DefaultInterruptHandler:	
  1911                           ; 1 bytes @ 0x0
  1912                           
  1913  0078                     ?_IOCCF3_DefaultInterruptHandler:	
  1914                           ; 1 bytes @ 0x0
  1915                           
  1916  0078                     ??_IOCCF3_DefaultInterruptHandler:	
  1917                           ; 1 bytes @ 0x0
  1918                           
  1919  0078                     ?_TMR0_ISR:	
  1920                           ; 1 bytes @ 0x0
  1921                           
  1922  0078                     ??_TMR0_ISR:	
  1923                           ; 1 bytes @ 0x0
  1924                           
  1925  0078                     ?_TMR0_DefaultInterruptHandler:	
  1926                           ; 1 bytes @ 0x0
  1927                           
  1928  0078                     ??_TMR0_DefaultInterruptHandler:	
  1929                           ; 1 bytes @ 0x0
  1930                           
  1931  0078                     ?_interrupcion:	
  1932                           ; 1 bytes @ 0x0
  1933                           
  1934  0078                     ?_main:	
  1935                           ; 1 bytes @ 0x0
  1936                           
  1937                           
  1938                           ; 1 bytes @ 0x0
  1939  0078                     	ds	1
  1940  0079                     ?_secuencia1:
  1941  0079                     ?_secuencia2:	
  1942                           ; 1 bytes @ 0x1
  1943                           
  1944  0079                     ?_secuencia3:	
  1945                           ; 1 bytes @ 0x1
  1946                           
  1947  0079                     ??_IOCCF2_ISR:	
  1948                           ; 1 bytes @ 0x1
  1949                           
  1950  0079                     ??_IOCCF3_ISR:	
  1951                           ; 1 bytes @ 0x1
  1952                           
  1953  0079                     ??_PIN_MANAGER_IOC:	
  1954                           ; 1 bytes @ 0x1
  1955                           
  1956  0079                     ?_IOCAF0_SetInterruptHandler:	
  1957                           ; 1 bytes @ 0x1
  1958                           
  1959  0079                     ?_IOCAF1_SetInterruptHandler:	
  1960                           ; 1 bytes @ 0x1
  1961                           
  1962  0079                     ?_IOCAF2_SetInterruptHandler:	
  1963                           ; 1 bytes @ 0x1
  1964                           
  1965  0079                     ?_IOCCF2_SetInterruptHandler:	
  1966                           ; 1 bytes @ 0x1
  1967                           
  1968  0079                     ?_IOCCF3_SetInterruptHandler:	
  1969                           ; 1 bytes @ 0x1
  1970                           
  1971  0079                     ?_TMR0_SetInterruptHandler:	
  1972                           ; 1 bytes @ 0x1
  1973                           
  1974  0079                     ??_interrupcion:	
  1975                           ; 1 bytes @ 0x1
  1976                           
  1977  0079                     IOCAF0_SetInterruptHandler@InterruptHandler:	
  1978                           ; 1 bytes @ 0x1
  1979                           
  1980  0079                     IOCAF1_SetInterruptHandler@InterruptHandler:	
  1981                           ; 2 bytes @ 0x1
  1982                           
  1983  0079                     IOCAF2_SetInterruptHandler@InterruptHandler:	
  1984                           ; 2 bytes @ 0x1
  1985                           
  1986  0079                     IOCCF2_SetInterruptHandler@InterruptHandler:	
  1987                           ; 2 bytes @ 0x1
  1988                           
  1989  0079                     IOCCF3_SetInterruptHandler@InterruptHandler:	
  1990                           ; 2 bytes @ 0x1
  1991                           
  1992  0079                     TMR0_SetInterruptHandler@InterruptHandler:	
  1993                           ; 2 bytes @ 0x1
  1994                           
  1995  0079                     secuencia1@p:	
  1996                           ; 2 bytes @ 0x1
  1997                           
  1998  0079                     secuencia2@p:	
  1999                           ; 2 bytes @ 0x1
  2000                           
  2001  0079                     secuencia3@p:	
  2002                           ; 2 bytes @ 0x1
  2003                           
  2004                           
  2005                           ; 2 bytes @ 0x1
  2006  0079                     	ds	2
  2007  007B                     ??_secuencia1:
  2008  007B                     ??_secuencia2:	
  2009                           ; 1 bytes @ 0x3
  2010                           
  2011  007B                     ??_secuencia3:	
  2012                           ; 1 bytes @ 0x3
  2013                           
  2014  007B                     ??_IOCAF0_SetInterruptHandler:	
  2015                           ; 1 bytes @ 0x3
  2016                           
  2017  007B                     ??_IOCAF1_SetInterruptHandler:	
  2018                           ; 1 bytes @ 0x3
  2019                           
  2020  007B                     ??_IOCAF2_SetInterruptHandler:	
  2021                           ; 1 bytes @ 0x3
  2022                           
  2023  007B                     ??_IOCCF2_SetInterruptHandler:	
  2024                           ; 1 bytes @ 0x3
  2025                           
  2026  007B                     ??_IOCCF3_SetInterruptHandler:	
  2027                           ; 1 bytes @ 0x3
  2028                           
  2029  007B                     ??_TMR0_SetInterruptHandler:	
  2030                           ; 1 bytes @ 0x3
  2031                           
  2032  007B                     ??_main:	
  2033                           ; 1 bytes @ 0x3
  2034                           
  2035                           
  2036                           	psect	maintext
  2037  0040                     __pmaintext:	
  2038                           ; 1 bytes @ 0x3
  2039 ;;
  2040 ;;Main: autosize = 0, tempsize = 0, incstack = 0, save=0
  2041 ;;
  2042 ;; *************** function _main *****************
  2043 ;; Defined at:
  2044 ;;		line 194 in file "main.c"
  2045 ;; Parameters:    Size  Location     Type
  2046 ;;		None
  2047 ;; Auto vars:     Size  Location     Type
  2048 ;;		None
  2049 ;; Return value:  Size  Location     Type
  2050 ;;                  1    wreg      void 
  2051 ;; Registers used:
  2052 ;;		wreg, fsr0l, fsr0h, status,2, status,0, pclath, cstack
  2053 ;; Tracked objects:
  2054 ;;		On entry : B1F/0
  2055 ;;		On exit  : 0/0
  2056 ;;		Unchanged: 0/0
  2057 ;; Data sizes:     COMMON   BANK0   BANK1   BANK2   BANK3   BANK4   BANK5   BANK6   BANK7   BANK8   BANK9  BANK10  BANK1
      +1  BANK12
  2058 ;;      Params:         0       0       0       0       0       0       0       0       0       0       0       0       
      +0       0
  2059 ;;      Locals:         0       0       0       0       0       0       0       0       0       0       0       0       
      +0       0
  2060 ;;      Temps:          0       0       0       0       0       0       0       0       0       0       0       0       
      +0       0
  2061 ;;      Totals:         0       0       0       0       0       0       0       0       0       0       0       0       
      +0       0
  2062 ;;Total ram usage:        0 bytes
  2063 ;; Hardware stack levels required when called: 5
  2064 ;; This function calls:
  2065 ;;		_IOCAF0_SetInterruptHandler
  2066 ;;		_IOCAF1_SetInterruptHandler
  2067 ;;		_IOCAF2_SetInterruptHandler
  2068 ;;		_IOCCF2_SetInterruptHandler
  2069 ;;		_IOCCF3_SetInterruptHandler
  2070 ;;		_TMR0_SetInterruptHandler
  2071 ;;		_secuencia1
  2072 ;;		_secuencia2
  2073 ;;		_secuencia3
  2074 ;; This function is called by:
  2075 ;;		Startup code after reset
  2076 ;; This function uses a non-reentrant model
  2077 ;;
  2078                           
  2079                           
  2080                           ;psect for function _main
  2081  0040                     _main:
  2082  0040                     l1341:	
  2083                           ;incstack = 0
  2084                           ; Regs used in _main: [wreg-fsr0h+status,2+status,0+pclath+cstack]
  2085                           
  2086                           
  2087                           ;main.c: 197:     OSCCON1 = 0x50;
  2088  0040  3050               	movlw	80
  2089  0041  0031               	movlb	17	; select bank17
  2090  0042  008D               	movwf	13	;volatile
  2091  0043                     l1343:
  2092                           
  2093                           ;main.c: 198:     OSCCON3 = 0x00;
  2094  0043  018F               	clrf	15	;volatile
  2095  0044                     l1345:
  2096                           
  2097                           ;main.c: 199:     OSCEN = 0x00;
  2098  0044  0191               	clrf	17	;volatile
  2099  0045                     l1347:
  2100                           
  2101                           ;main.c: 200:     OSCFRQ = 0x00;
  2102  0045  0193               	clrf	19	;volatile
  2103  0046                     l1349:
  2104                           
  2105                           ;main.c: 201:     OSCTUNE = 0x00;
  2106  0046  0192               	clrf	18	;volatile
  2107                           
  2108                           ;main.c: 203:     TRISE = 0x07;
  2109  0047  3007               	movlw	7
  2110  0048  0020               	movlb	0	; select bank0
  2111  0049  0095               	movwf	21	;volatile
  2112                           
  2113                           ;main.c: 204:     TRISA = 0xFF;
  2114  004A  30FF               	movlw	255
  2115  004B  0091               	movwf	17	;volatile
  2116  004C                     l1351:
  2117                           
  2118                           ;main.c: 205:     TRISB = 0x00;
  2119  004C  0192               	clrf	18	;volatile
  2120  004D                     l1353:
  2121                           
  2122                           ;main.c: 206:     TRISC = 0xFF;
  2123  004D  30FF               	movlw	255
  2124  004E  0093               	movwf	19	;volatile
  2125  004F                     l1355:
  2126                           
  2127                           ;main.c: 207:     TRISD = 0xFF;
  2128  004F  30FF               	movlw	255
  2129  0050  0094               	movwf	20	;volatile
  2130  0051                     l1357:
  2131                           
  2132                           ;main.c: 212:     ANSELD = 0xFF;
  2133  0051  30FF               	movlw	255
  2134  0052  003E               	movlb	30	; select bank30
  2135  0053  00D9               	movwf	89	;volatile
  2136  0054                     l1359:
  2137                           
  2138                           ;main.c: 213:     ANSELC = 0xF3;
  2139  0054  30F3               	movlw	243
  2140  0055  00CE               	movwf	78	;volatile
  2141  0056                     l1361:
  2142                           
  2143                           ;main.c: 214:     ANSELB = 0x00;
  2144  0056  01C3               	clrf	67	;volatile
  2145                           
  2146                           ;main.c: 215:     ANSELE = 0x07;
  2147  0057  3007               	movlw	7
  2148  0058  00E4               	movwf	100	;volatile
  2149                           
  2150                           ;main.c: 216:     ANSELA = 0xF8;
  2151  0059  30F8               	movlw	248
  2152  005A  00B8               	movwf	56	;volatile
  2153  005B                     l1363:
  2154                           
  2155                           ;main.c: 218:     IOCAFbits.IOCAF0 = 0;
  2156  005B  103F               	bcf	63,0	;volatile
  2157  005C                     l1365:
  2158                           
  2159                           ;main.c: 219:     IOCAFbits.IOCAF1 = 0;
  2160  005C  10BF               	bcf	63,1	;volatile
  2161  005D                     l1367:
  2162                           
  2163                           ;main.c: 220:     IOCAFbits.IOCAF2 = 0;
  2164  005D  113F               	bcf	63,2	;volatile
  2165  005E                     l1369:
  2166                           
  2167                           ;main.c: 221:     IOCANbits.IOCAN0 = 1;
  2168  005E  143E               	bsf	62,0	;volatile
  2169  005F                     l1371:
  2170                           
  2171                           ;main.c: 222:     IOCANbits.IOCAN1 = 1;
  2172  005F  14BE               	bsf	62,1	;volatile
  2173  0060                     l1373:
  2174                           
  2175                           ;main.c: 223:     IOCANbits.IOCAN2 = 1;
  2176  0060  153E               	bsf	62,2	;volatile
  2177  0061                     l1375:
  2178                           
  2179                           ;main.c: 224:     IOCAPbits.IOCAP0 = 0;
  2180  0061  103D               	bcf	61,0	;volatile
  2181  0062                     l1377:
  2182                           
  2183                           ;main.c: 225:     IOCAPbits.IOCAP1 = 0;
  2184  0062  10BD               	bcf	61,1	;volatile
  2185  0063                     l1379:
  2186                           
  2187                           ;main.c: 226:     IOCAPbits.IOCAP2 = 0;
  2188  0063  113D               	bcf	61,2	;volatile
  2189  0064                     l1381:
  2190                           
  2191                           ;main.c: 227:     IOCCFbits.IOCCF2 = 0;
  2192  0064  1155               	bcf	85,2	;volatile
  2193  0065                     l1383:
  2194                           
  2195                           ;main.c: 228:     IOCCFbits.IOCCF3 = 0;
  2196  0065  11D5               	bcf	85,3	;volatile
  2197  0066                     l1385:
  2198                           
  2199                           ;main.c: 229:     IOCCNbits.IOCCN2 = 1;
  2200  0066  1554               	bsf	84,2	;volatile
  2201  0067                     l1387:
  2202                           
  2203                           ;main.c: 230:     IOCCNbits.IOCCN3 = 1;
  2204  0067  15D4               	bsf	84,3	;volatile
  2205  0068                     l1389:
  2206                           
  2207                           ;main.c: 231:     IOCCPbits.IOCCP2 = 0;
  2208  0068  1153               	bcf	83,2	;volatile
  2209  0069                     l1391:
  2210                           
  2211                           ;main.c: 232:     IOCCPbits.IOCCP3 = 0;
  2212  0069  11D3               	bcf	83,3	;volatile
  2213  006A                     l1393:
  2214                           
  2215                           ;main.c: 233:     PIE0bits.IOCIE = 1;
  2216  006A  002E               	movlb	14	; select bank14
  2217  006B  1616               	bsf	22,4	;volatile
  2218                           
  2219                           ;main.c: 236:     T0CON1 = 0x88;
  2220  006C  3088               	movlw	136
  2221  006D  0020               	movlb	0	; select bank0
  2222  006E  009F               	movwf	31	;volatile
  2223                           
  2224                           ;main.c: 237:     TMR0H = 0x78;
  2225  006F  3078               	movlw	120
  2226  0070  009D               	movwf	29	;volatile
  2227  0071                     l1395:
  2228                           
  2229                           ;main.c: 238:     TMR0L = 0x00;
  2230  0071  019C               	clrf	28	;volatile
  2231  0072                     l1397:
  2232                           
  2233                           ;main.c: 239:     PIR0bits.TMR0IF = 0;
  2234  0072  002E               	movlb	14	; select bank14
  2235  0073  128C               	bcf	12,5	;volatile
  2236  0074                     l1399:
  2237                           
  2238                           ;main.c: 240:     PIE0bits.TMR0IE = 1;
  2239  0074  1696               	bsf	22,5	;volatile
  2240  0075                     l1401:
  2241                           
  2242                           ;main.c: 241:     INTCONbits.GIE = 1;
  2243  0075  178B               	bsf	11,7	;volatile
  2244  0076                     l1403:
  2245                           
  2246                           ;main.c: 242:     PIE0bits.IOCIE = 1;
  2247  0076  1616               	bsf	22,4	;volatile
  2248  0077                     l1405:
  2249                           
  2250                           ;main.c: 243:     TMR0_SetInterruptHandler(TMR0_DefaultInterruptHandler);
  2251  0077  3023               	movlw	low _TMR0_DefaultInterruptHandler
  2252  0078  00F9               	movwf	TMR0_SetInterruptHandler@InterruptHandler
  2253  0079  3002               	movlw	high _TMR0_DefaultInterruptHandler
  2254  007A  00FA               	movwf	TMR0_SetInterruptHandler@InterruptHandler+1
  2255  007B  3182  223F  3180   	fcall	_TMR0_SetInterruptHandler
  2256  007E                     l1407:
  2257                           
  2258                           ;main.c: 244:     IOCAF0_SetInterruptHandler(IOCAF0_DefaultInterruptHandler);
  2259  007E  3068               	movlw	low _IOCAF0_DefaultInterruptHandler
  2260  007F  00F9               	movwf	IOCAF0_SetInterruptHandler@InterruptHandler
  2261  0080  3002               	movlw	high _IOCAF0_DefaultInterruptHandler
  2262  0081  00FA               	movwf	IOCAF0_SetInterruptHandler@InterruptHandler+1
  2263  0082  3182  225D  3180   	fcall	_IOCAF0_SetInterruptHandler
  2264  0085                     l1409:
  2265                           
  2266                           ;main.c: 245:     IOCAF1_SetInterruptHandler(IOCAF1_DefaultInterruptHandler);
  2267  0085  3063               	movlw	low _IOCAF1_DefaultInterruptHandler
  2268  0086  00F9               	movwf	IOCAF1_SetInterruptHandler@InterruptHandler
  2269  0087  3002               	movlw	high _IOCAF1_DefaultInterruptHandler
  2270  0088  00FA               	movwf	IOCAF1_SetInterruptHandler@InterruptHandler+1
  2271  0089  3182  2257  3180   	fcall	_IOCAF1_SetInterruptHandler
  2272  008C                     l1411:
  2273                           
  2274                           ;main.c: 246:     IOCAF2_SetInterruptHandler(IOCAF2_DefaultInterruptHandler);
  2275  008C  3071               	movlw	low _IOCAF2_DefaultInterruptHandler
  2276  008D  00F9               	movwf	IOCAF2_SetInterruptHandler@InterruptHandler
  2277  008E  3002               	movlw	high _IOCAF2_DefaultInterruptHandler
  2278  008F  00FA               	movwf	IOCAF2_SetInterruptHandler@InterruptHandler+1
  2279  0090  3182  2251  3180   	fcall	_IOCAF2_SetInterruptHandler
  2280  0093                     l1413:
  2281                           
  2282                           ;main.c: 247:     IOCCF2_SetInterruptHandler(IOCCF2_DefaultInterruptHandler);
  2283  0093  30A2               	movlw	low _IOCCF2_DefaultInterruptHandler
  2284  0094  00F9               	movwf	IOCCF2_SetInterruptHandler@InterruptHandler
  2285  0095  3001               	movlw	high _IOCCF2_DefaultInterruptHandler
  2286  0096  00FA               	movwf	IOCCF2_SetInterruptHandler@InterruptHandler+1
  2287  0097  3182  224B  3180   	fcall	_IOCCF2_SetInterruptHandler
  2288  009A                     l1415:
  2289                           
  2290                           ;main.c: 248:     IOCCF3_SetInterruptHandler(IOCCF3_DefaultInterruptHandler);
  2291  009A  307B               	movlw	low _IOCCF3_DefaultInterruptHandler
  2292  009B  00F9               	movwf	IOCCF3_SetInterruptHandler@InterruptHandler
  2293  009C  3001               	movlw	high _IOCCF3_DefaultInterruptHandler
  2294  009D  00FA               	movwf	IOCCF3_SetInterruptHandler@InterruptHandler+1
  2295  009E  3182  2245  3180   	fcall	_IOCCF3_SetInterruptHandler
  2296  00A1                     l1417:
  2297                           
  2298                           ;main.c: 250:     T0CON0 = 0x80;
  2299  00A1  3080               	movlw	128
  2300  00A2  0020               	movlb	0	; select bank0
  2301  00A3  009E               	movwf	30	;volatile
  2302  00A4  28BC               	goto	l1427
  2303  00A5                     l1419:
  2304                           
  2305                           ;main.c: 255:                 secuencia1(i);
  2306  00A5  087C               	movf	_i+1,w
  2307  00A6  00FA               	movwf	secuencia1@p+1
  2308  00A7  087B               	movf	_i,w
  2309  00A8  00F9               	movwf	secuencia1@p
  2310  00A9  3181  2126  3180   	fcall	_secuencia1
  2311                           
  2312                           ;main.c: 256:                 break;
  2313  00AC  28BC               	goto	l1427
  2314  00AD                     l1421:
  2315                           
  2316                           ;main.c: 258:                 secuencia2(i);
  2317  00AD  087C               	movf	_i+1,w
  2318  00AE  00FA               	movwf	secuencia2@p+1
  2319  00AF  087B               	movf	_i,w
  2320  00B0  00F9               	movwf	secuencia2@p
  2321  00B1  3180  20FA  3180   	fcall	_secuencia2
  2322                           
  2323                           ;main.c: 259:                 break;
  2324  00B4  28BC               	goto	l1427
  2325  00B5                     l1423:
  2326                           
  2327                           ;main.c: 261:                 secuencia3(i);
  2328  00B5  087C               	movf	_i+1,w
  2329  00B6  00FA               	movwf	secuencia3@p+1
  2330  00B7  087B               	movf	_i,w
  2331  00B8  00F9               	movwf	secuencia3@p
  2332  00B9  3180  20CE  3180   	fcall	_secuencia3
  2333  00BC                     l1427:	
  2334                           ;main.c: 262:                 break;
  2335                           
  2336                           
  2337                           ; Switch on 2 bytes has been partitioned into a top level switch of size 1, and 1 sub-sw
      +                          itches
  2338                           ; Switch size 1, requested type "simple"
  2339                           ; Number of cases is 1, Range of values is 0 to 0
  2340                           ; switch strategies available:
  2341                           ; Name         Instructions Cycles
  2342                           ; simple_byte            4     3 (average)
  2343                           ; direct_byte            8     6 (fixed)
  2344                           ; jumptable            260     6 (fixed)
  2345                           ;	Chosen strategy is simple_byte
  2346  00BC  0877               	movf	_j+1,w
  2347  00BD  3A00               	xorlw	0	; case 0
  2348  00BE  1903               	skipnz
  2349  00BF  28C1               	goto	l1525
  2350  00C0  28BC               	goto	l1427
  2351  00C1                     l1525:
  2352                           
  2353                           ; Switch size 1, requested type "simple"
  2354                           ; Number of cases is 3, Range of values is 0 to 2
  2355                           ; switch strategies available:
  2356                           ; Name         Instructions Cycles
  2357                           ; simple_byte           10     6 (average)
  2358                           ; direct_byte           12     6 (fixed)
  2359                           ; jumptable            260     6 (fixed)
  2360                           ;	Chosen strategy is simple_byte
  2361  00C1  0876               	movf	_j,w
  2362  00C2  3A00               	xorlw	0	; case 0
  2363  00C3  1903               	skipnz
  2364  00C4  28A5               	goto	l1419
  2365  00C5  3A01               	xorlw	1	; case 1
  2366  00C6  1903               	skipnz
  2367  00C7  28AD               	goto	l1421
  2368  00C8  3A03               	xorlw	3	; case 2
  2369  00C9  1903               	skipnz
  2370  00CA  28B5               	goto	l1423
  2371  00CB  28BC               	goto	l1427
  2372  00CC  3180  2820         	ljmp	start
  2373  00CE                     __end_of_main:
  2374                           
  2375                           	psect	text1
  2376  00CE                     __ptext1:	
  2377 ;; *************** function _secuencia3 *****************
  2378 ;; Defined at:
  2379 ;;		line 42 in file "funciones.c"
  2380 ;; Parameters:    Size  Location     Type
  2381 ;;  p               2    1[COMMON] int 
  2382 ;; Auto vars:     Size  Location     Type
  2383 ;;		None
  2384 ;; Return value:  Size  Location     Type
  2385 ;;                  1    wreg      void 
  2386 ;; Registers used:
  2387 ;;		wreg, fsr0l, fsr0h, status,2, status,0
  2388 ;; Tracked objects:
  2389 ;;		On entry : 0/0
  2390 ;;		On exit  : 0/0
  2391 ;;		Unchanged: 0/0
  2392 ;; Data sizes:     COMMON   BANK0   BANK1   BANK2   BANK3   BANK4   BANK5   BANK6   BANK7   BANK8   BANK9  BANK10  BANK1
      +1  BANK12
  2393 ;;      Params:         2       0       0       0       0       0       0       0       0       0       0       0       
      +0       0
  2394 ;;      Locals:         0       0       0       0       0       0       0       0       0       0       0       0       
      +0       0
  2395 ;;      Temps:          0       0       0       0       0       0       0       0       0       0       0       0       
      +0       0
  2396 ;;      Totals:         2       0       0       0       0       0       0       0       0       0       0       0       
      +0       0
  2397 ;;Total ram usage:        2 bytes
  2398 ;; Hardware stack levels used: 1
  2399 ;; Hardware stack levels required when called: 4
  2400 ;; This function calls:
  2401 ;;		Nothing
  2402 ;; This function is called by:
  2403 ;;		_main
  2404 ;; This function uses a non-reentrant model
  2405 ;;
  2406                           
  2407                           
  2408                           ;psect for function _secuencia3
  2409  00CE                     _secuencia3:
  2410  00CE                     l1311:	
  2411                           ;incstack = 0
  2412                           ; Regs used in _secuencia3: [wreg-fsr0h+status,2+status,0]
  2413                           
  2414                           
  2415                           ;funciones.c: 43:     switch (p) {
  2416  00CE  28E3               	goto	l1325
  2417  00CF                     l1313:
  2418                           
  2419                           ;funciones.c: 45:             LATB = 0b11101110;
  2420  00CF  30EE               	movlw	238
  2421  00D0  0020               	movlb	0	; select bank0
  2422  00D1  0097               	movwf	23	;volatile
  2423                           
  2424                           ;funciones.c: 46:             break;
  2425  00D2  28F9               	goto	l215
  2426  00D3                     l1315:
  2427                           
  2428                           ;funciones.c: 48:             LATB = 0b00111110;
  2429  00D3  303E               	movlw	62
  2430  00D4  0020               	movlb	0	; select bank0
  2431  00D5  0097               	movwf	23	;volatile
  2432                           
  2433                           ;funciones.c: 49:             break;
  2434  00D6  28F9               	goto	l215
  2435  00D7                     l1317:
  2436                           
  2437                           ;funciones.c: 51:             LATB = 0b10011100;
  2438  00D7  309C               	movlw	156
  2439  00D8  0020               	movlb	0	; select bank0
  2440  00D9  0097               	movwf	23	;volatile
  2441                           
  2442                           ;funciones.c: 52:             break;
  2443  00DA  28F9               	goto	l215
  2444  00DB                     l1319:
  2445                           
  2446                           ;funciones.c: 54:             LATB = 0b01111010;
  2447  00DB  307A               	movlw	122
  2448  00DC  0020               	movlb	0	; select bank0
  2449  00DD  0097               	movwf	23	;volatile
  2450                           
  2451                           ;funciones.c: 55:             break;
  2452  00DE  28F9               	goto	l215
  2453  00DF                     l1321:
  2454                           
  2455                           ;funciones.c: 57:             LATB = 0b10011110;
  2456  00DF  309E               	movlw	158
  2457  00E0  0020               	movlb	0	; select bank0
  2458  00E1  0097               	movwf	23	;volatile
  2459                           
  2460                           ;funciones.c: 58:             break;
  2461  00E2  28F9               	goto	l215
  2462  00E3                     l1325:
  2463                           
  2464                           ; Switch on 2 bytes has been partitioned into a top level switch of size 1, and 1 sub-sw
      +                          itches
  2465                           ; Switch size 1, requested type "simple"
  2466                           ; Number of cases is 1, Range of values is 0 to 0
  2467                           ; switch strategies available:
  2468                           ; Name         Instructions Cycles
  2469                           ; simple_byte            4     3 (average)
  2470                           ; direct_byte            8     6 (fixed)
  2471                           ; jumptable            260     6 (fixed)
  2472                           ;	Chosen strategy is simple_byte
  2473  00E3  087A               	movf	secuencia3@p+1,w
  2474  00E4  3A00               	xorlw	0	; case 0
  2475  00E5  1903               	skipnz
  2476  00E6  28E8               	goto	l1527
  2477  00E7  28F9               	goto	l215
  2478  00E8                     l1527:
  2479                           
  2480                           ; Switch size 1, requested type "simple"
  2481                           ; Number of cases is 5, Range of values is 0 to 4
  2482                           ; switch strategies available:
  2483                           ; Name         Instructions Cycles
  2484                           ; direct_byte           16     6 (fixed)
  2485                           ; simple_byte           16     9 (average)
  2486                           ; jumptable            260     6 (fixed)
  2487                           ;	Chosen strategy is simple_byte
  2488  00E8  0879               	movf	secuencia3@p,w
  2489  00E9  3A00               	xorlw	0	; case 0
  2490  00EA  1903               	skipnz
  2491  00EB  28CF               	goto	l1313
  2492  00EC  3A01               	xorlw	1	; case 1
  2493  00ED  1903               	skipnz
  2494  00EE  28D3               	goto	l1315
  2495  00EF  3A03               	xorlw	3	; case 2
  2496  00F0  1903               	skipnz
  2497  00F1  28D7               	goto	l1317
  2498  00F2  3A01               	xorlw	1	; case 3
  2499  00F3  1903               	skipnz
  2500  00F4  28DB               	goto	l1319
  2501  00F5  3A07               	xorlw	7	; case 4
  2502  00F6  1903               	skipnz
  2503  00F7  28DF               	goto	l1321
  2504  00F8  28F9               	goto	l215
  2505  00F9                     l215:
  2506  00F9  0008               	return
  2507  00FA                     __end_of_secuencia3:
  2508                           
  2509                           	psect	text2
  2510  00FA                     __ptext2:	
  2511 ;; *************** function _secuencia2 *****************
  2512 ;; Defined at:
  2513 ;;		line 22 in file "funciones.c"
  2514 ;; Parameters:    Size  Location     Type
  2515 ;;  p               2    1[COMMON] int 
  2516 ;; Auto vars:     Size  Location     Type
  2517 ;;		None
  2518 ;; Return value:  Size  Location     Type
  2519 ;;                  1    wreg      void 
  2520 ;; Registers used:
  2521 ;;		wreg, fsr0l, fsr0h, status,2, status,0
  2522 ;; Tracked objects:
  2523 ;;		On entry : 0/0
  2524 ;;		On exit  : 0/0
  2525 ;;		Unchanged: 0/0
  2526 ;; Data sizes:     COMMON   BANK0   BANK1   BANK2   BANK3   BANK4   BANK5   BANK6   BANK7   BANK8   BANK9  BANK10  BANK1
      +1  BANK12
  2527 ;;      Params:         2       0       0       0       0       0       0       0       0       0       0       0       
      +0       0
  2528 ;;      Locals:         0       0       0       0       0       0       0       0       0       0       0       0       
      +0       0
  2529 ;;      Temps:          0       0       0       0       0       0       0       0       0       0       0       0       
      +0       0
  2530 ;;      Totals:         2       0       0       0       0       0       0       0       0       0       0       0       
      +0       0
  2531 ;;Total ram usage:        2 bytes
  2532 ;; Hardware stack levels used: 1
  2533 ;; Hardware stack levels required when called: 4
  2534 ;; This function calls:
  2535 ;;		Nothing
  2536 ;; This function is called by:
  2537 ;;		_main
  2538 ;; This function uses a non-reentrant model
  2539 ;;
  2540                           
  2541                           
  2542                           ;psect for function _secuencia2
  2543  00FA                     _secuencia2:
  2544  00FA                     l1291:	
  2545                           ;incstack = 0
  2546                           ; Regs used in _secuencia2: [wreg-fsr0h+status,2+status,0]
  2547                           
  2548                           
  2549                           ;funciones.c: 23:     switch (p) {
  2550  00FA  290F               	goto	l1305
  2551  00FB                     l1293:
  2552                           
  2553                           ;funciones.c: 25:             LATB = 0b11111101;
  2554  00FB  30FD               	movlw	253
  2555  00FC  0020               	movlb	0	; select bank0
  2556  00FD  0097               	movwf	23	;volatile
  2557                           
  2558                           ;funciones.c: 26:             break;
  2559  00FE  2925               	goto	l205
  2560  00FF                     l1295:
  2561                           
  2562                           ;funciones.c: 28:             LATB = 0b11011010;
  2563  00FF  30DA               	movlw	218
  2564  0100  0020               	movlb	0	; select bank0
  2565  0101  0097               	movwf	23	;volatile
  2566                           
  2567                           ;funciones.c: 29:             break;
  2568  0102  2925               	goto	l205
  2569  0103                     l1297:
  2570                           
  2571                           ;funciones.c: 31:             LATB = 0b01100110;
  2572  0103  3066               	movlw	102
  2573  0104  0020               	movlb	0	; select bank0
  2574  0105  0097               	movwf	23	;volatile
  2575                           
  2576                           ;funciones.c: 32:             break;
  2577  0106  2925               	goto	l205
  2578  0107                     l1299:
  2579                           
  2580                           ;funciones.c: 34:             LATB = 0b10111110;
  2581  0107  30BE               	movlw	190
  2582  0108  0020               	movlb	0	; select bank0
  2583  0109  0097               	movwf	23	;volatile
  2584                           
  2585                           ;funciones.c: 35:             break;
  2586  010A  2925               	goto	l205
  2587  010B                     l1301:
  2588                           
  2589                           ;funciones.c: 37:             LATB = 0b11111111;
  2590  010B  30FF               	movlw	255
  2591  010C  0020               	movlb	0	; select bank0
  2592  010D  0097               	movwf	23	;volatile
  2593                           
  2594                           ;funciones.c: 38:             break;
  2595  010E  2925               	goto	l205
  2596  010F                     l1305:
  2597                           
  2598                           ; Switch on 2 bytes has been partitioned into a top level switch of size 1, and 1 sub-sw
      +                          itches
  2599                           ; Switch size 1, requested type "simple"
  2600                           ; Number of cases is 1, Range of values is 0 to 0
  2601                           ; switch strategies available:
  2602                           ; Name         Instructions Cycles
  2603                           ; simple_byte            4     3 (average)
  2604                           ; direct_byte            8     6 (fixed)
  2605                           ; jumptable            260     6 (fixed)
  2606                           ;	Chosen strategy is simple_byte
  2607  010F  087A               	movf	secuencia2@p+1,w
  2608  0110  3A00               	xorlw	0	; case 0
  2609  0111  1903               	skipnz
  2610  0112  2914               	goto	l1529
  2611  0113  2925               	goto	l205
  2612  0114                     l1529:
  2613                           
  2614                           ; Switch size 1, requested type "simple"
  2615                           ; Number of cases is 5, Range of values is 0 to 4
  2616                           ; switch strategies available:
  2617                           ; Name         Instructions Cycles
  2618                           ; direct_byte           16     6 (fixed)
  2619                           ; simple_byte           16     9 (average)
  2620                           ; jumptable            260     6 (fixed)
  2621                           ;	Chosen strategy is simple_byte
  2622  0114  0879               	movf	secuencia2@p,w
  2623  0115  3A00               	xorlw	0	; case 0
  2624  0116  1903               	skipnz
  2625  0117  28FB               	goto	l1293
  2626  0118  3A01               	xorlw	1	; case 1
  2627  0119  1903               	skipnz
  2628  011A  28FF               	goto	l1295
  2629  011B  3A03               	xorlw	3	; case 2
  2630  011C  1903               	skipnz
  2631  011D  2903               	goto	l1297
  2632  011E  3A01               	xorlw	1	; case 3
  2633  011F  1903               	skipnz
  2634  0120  2907               	goto	l1299
  2635  0121  3A07               	xorlw	7	; case 4
  2636  0122  1903               	skipnz
  2637  0123  290B               	goto	l1301
  2638  0124  2925               	goto	l205
  2639  0125                     l205:
  2640  0125  0008               	return
  2641  0126                     __end_of_secuencia2:
  2642                           
  2643                           	psect	text3
  2644  0126                     __ptext3:	
  2645 ;; *************** function _secuencia1 *****************
  2646 ;; Defined at:
  2647 ;;		line 2 in file "funciones.c"
  2648 ;; Parameters:    Size  Location     Type
  2649 ;;  p               2    1[COMMON] int 
  2650 ;; Auto vars:     Size  Location     Type
  2651 ;;		None
  2652 ;; Return value:  Size  Location     Type
  2653 ;;                  1    wreg      void 
  2654 ;; Registers used:
  2655 ;;		wreg, fsr0l, fsr0h, status,2, status,0
  2656 ;; Tracked objects:
  2657 ;;		On entry : 0/0
  2658 ;;		On exit  : 0/0
  2659 ;;		Unchanged: 0/0
  2660 ;; Data sizes:     COMMON   BANK0   BANK1   BANK2   BANK3   BANK4   BANK5   BANK6   BANK7   BANK8   BANK9  BANK10  BANK1
      +1  BANK12
  2661 ;;      Params:         2       0       0       0       0       0       0       0       0       0       0       0       
      +0       0
  2662 ;;      Locals:         0       0       0       0       0       0       0       0       0       0       0       0       
      +0       0
  2663 ;;      Temps:          0       0       0       0       0       0       0       0       0       0       0       0       
      +0       0
  2664 ;;      Totals:         2       0       0       0       0       0       0       0       0       0       0       0       
      +0       0
  2665 ;;Total ram usage:        2 bytes
  2666 ;; Hardware stack levels used: 1
  2667 ;; Hardware stack levels required when called: 4
  2668 ;; This function calls:
  2669 ;;		Nothing
  2670 ;; This function is called by:
  2671 ;;		_main
  2672 ;; This function uses a non-reentrant model
  2673 ;;
  2674                           
  2675                           
  2676                           ;psect for function _secuencia1
  2677  0126                     _secuencia1:
  2678  0126                     l1271:	
  2679                           ;incstack = 0
  2680                           ; Regs used in _secuencia1: [wreg-fsr0h+status,2+status,0]
  2681                           
  2682                           
  2683                           ;funciones.c: 3:     switch (p) {
  2684  0126  293B               	goto	l1285
  2685  0127                     l1273:
  2686                           
  2687                           ;funciones.c: 5:             LATB = 0b01100001;
  2688  0127  3061               	movlw	97
  2689  0128  0020               	movlb	0	; select bank0
  2690  0129  0097               	movwf	23	;volatile
  2691                           
  2692                           ;funciones.c: 6:             break;
  2693  012A  2951               	goto	l195
  2694  012B                     l1275:
  2695                           
  2696                           ;funciones.c: 8:             LATB = 0b11110010;
  2697  012B  30F2               	movlw	242
  2698  012C  0020               	movlb	0	; select bank0
  2699  012D  0097               	movwf	23	;volatile
  2700                           
  2701                           ;funciones.c: 9:             break;
  2702  012E  2951               	goto	l195
  2703  012F                     l1277:
  2704                           
  2705                           ;funciones.c: 11:             LATB = 0b10110110;
  2706  012F  30B6               	movlw	182
  2707  0130  0020               	movlb	0	; select bank0
  2708  0131  0097               	movwf	23	;volatile
  2709                           
  2710                           ;funciones.c: 12:             break;
  2711  0132  2951               	goto	l195
  2712  0133                     l1279:
  2713                           
  2714                           ;funciones.c: 14:             LATB = 0b11100100;
  2715  0133  30E4               	movlw	228
  2716  0134  0020               	movlb	0	; select bank0
  2717  0135  0097               	movwf	23	;volatile
  2718                           
  2719                           ;funciones.c: 15:             break;
  2720  0136  2951               	goto	l195
  2721  0137                     l1281:
  2722                           
  2723                           ;funciones.c: 17:             LATB = 0b11110110;
  2724  0137  30F6               	movlw	246
  2725  0138  0020               	movlb	0	; select bank0
  2726  0139  0097               	movwf	23	;volatile
  2727                           
  2728                           ;funciones.c: 18:             break;
  2729  013A  2951               	goto	l195
  2730  013B                     l1285:
  2731                           
  2732                           ; Switch on 2 bytes has been partitioned into a top level switch of size 1, and 1 sub-sw
      +                          itches
  2733                           ; Switch size 1, requested type "simple"
  2734                           ; Number of cases is 1, Range of values is 0 to 0
  2735                           ; switch strategies available:
  2736                           ; Name         Instructions Cycles
  2737                           ; simple_byte            4     3 (average)
  2738                           ; direct_byte            8     6 (fixed)
  2739                           ; jumptable            260     6 (fixed)
  2740                           ;	Chosen strategy is simple_byte
  2741  013B  087A               	movf	secuencia1@p+1,w
  2742  013C  3A00               	xorlw	0	; case 0
  2743  013D  1903               	skipnz
  2744  013E  2940               	goto	l1531
  2745  013F  2951               	goto	l195
  2746  0140                     l1531:
  2747                           
  2748                           ; Switch size 1, requested type "simple"
  2749                           ; Number of cases is 5, Range of values is 0 to 4
  2750                           ; switch strategies available:
  2751                           ; Name         Instructions Cycles
  2752                           ; direct_byte           16     6 (fixed)
  2753                           ; simple_byte           16     9 (average)
  2754                           ; jumptable            260     6 (fixed)
  2755                           ;	Chosen strategy is simple_byte
  2756  0140  0879               	movf	secuencia1@p,w
  2757  0141  3A00               	xorlw	0	; case 0
  2758  0142  1903               	skipnz
  2759  0143  2927               	goto	l1273
  2760  0144  3A01               	xorlw	1	; case 1
  2761  0145  1903               	skipnz
  2762  0146  292B               	goto	l1275
  2763  0147  3A03               	xorlw	3	; case 2
  2764  0148  1903               	skipnz
  2765  0149  292F               	goto	l1277
  2766  014A  3A01               	xorlw	1	; case 3
  2767  014B  1903               	skipnz
  2768  014C  2933               	goto	l1279
  2769  014D  3A07               	xorlw	7	; case 4
  2770  014E  1903               	skipnz
  2771  014F  2937               	goto	l1281
  2772  0150  2951               	goto	l195
  2773  0151                     l195:
  2774  0151  0008               	return
  2775  0152                     __end_of_secuencia1:
  2776                           
  2777                           	psect	text4
  2778  023F                     __ptext4:	
  2779 ;; *************** function _TMR0_SetInterruptHandler *****************
  2780 ;; Defined at:
  2781 ;;		line 169 in file "main.c"
  2782 ;; Parameters:    Size  Location     Type
  2783 ;;  InterruptHan    2    1[COMMON] PTR FTN()void 
  2784 ;;		 -> TMR0_DefaultInterruptHandler(1), 
  2785 ;; Auto vars:     Size  Location     Type
  2786 ;;		None
  2787 ;; Return value:  Size  Location     Type
  2788 ;;                  1    wreg      void 
  2789 ;; Registers used:
  2790 ;;		wreg
  2791 ;; Tracked objects:
  2792 ;;		On entry : 0/0
  2793 ;;		On exit  : 0/0
  2794 ;;		Unchanged: 0/0
  2795 ;; Data sizes:     COMMON   BANK0   BANK1   BANK2   BANK3   BANK4   BANK5   BANK6   BANK7   BANK8   BANK9  BANK10  BANK1
      +1  BANK12
  2796 ;;      Params:         2       0       0       0       0       0       0       0       0       0       0       0       
      +0       0
  2797 ;;      Locals:         0       0       0       0       0       0       0       0       0       0       0       0       
      +0       0
  2798 ;;      Temps:          0       0       0       0       0       0       0       0       0       0       0       0       
      +0       0
  2799 ;;      Totals:         2       0       0       0       0       0       0       0       0       0       0       0       
      +0       0
  2800 ;;Total ram usage:        2 bytes
  2801 ;; Hardware stack levels used: 1
  2802 ;; Hardware stack levels required when called: 4
  2803 ;; This function calls:
  2804 ;;		Nothing
  2805 ;; This function is called by:
  2806 ;;		_main
  2807 ;; This function uses a non-reentrant model
  2808 ;;
  2809                           
  2810                           
  2811                           ;psect for function _TMR0_SetInterruptHandler
  2812  023F                     _TMR0_SetInterruptHandler:
  2813  023F                     l1269:	
  2814                           ;incstack = 0
  2815                           ; Regs used in _TMR0_SetInterruptHandler: [wreg]
  2816                           
  2817                           
  2818                           ;main.c: 170:     TMR0_InterruptHandler = InterruptHandler;
  2819  023F  087A               	movf	TMR0_SetInterruptHandler@InterruptHandler+1,w
  2820  0240  0020               	movlb	0	; select bank0
  2821  0241  00AB               	movwf	_TMR0_InterruptHandler+1
  2822  0242  0879               	movf	TMR0_SetInterruptHandler@InterruptHandler,w
  2823  0243  00AA               	movwf	_TMR0_InterruptHandler
  2824  0244                     l157:
  2825  0244  0008               	return
  2826  0245                     __end_of_TMR0_SetInterruptHandler:
  2827                           
  2828                           	psect	text5
  2829  0245                     __ptext5:	
  2830 ;; *************** function _IOCCF3_SetInterruptHandler *****************
  2831 ;; Defined at:
  2832 ;;		line 140 in file "main.c"
  2833 ;; Parameters:    Size  Location     Type
  2834 ;;  InterruptHan    2    1[COMMON] PTR FTN()void 
  2835 ;;		 -> IOCCF3_DefaultInterruptHandler(1), 
  2836 ;; Auto vars:     Size  Location     Type
  2837 ;;		None
  2838 ;; Return value:  Size  Location     Type
  2839 ;;                  1    wreg      void 
  2840 ;; Registers used:
  2841 ;;		wreg
  2842 ;; Tracked objects:
  2843 ;;		On entry : 0/0
  2844 ;;		On exit  : 0/0
  2845 ;;		Unchanged: 0/0
  2846 ;; Data sizes:     COMMON   BANK0   BANK1   BANK2   BANK3   BANK4   BANK5   BANK6   BANK7   BANK8   BANK9  BANK10  BANK1
      +1  BANK12
  2847 ;;      Params:         2       0       0       0       0       0       0       0       0       0       0       0       
      +0       0
  2848 ;;      Locals:         0       0       0       0       0       0       0       0       0       0       0       0       
      +0       0
  2849 ;;      Temps:          0       0       0       0       0       0       0       0       0       0       0       0       
      +0       0
  2850 ;;      Totals:         2       0       0       0       0       0       0       0       0       0       0       0       
      +0       0
  2851 ;;Total ram usage:        2 bytes
  2852 ;; Hardware stack levels used: 1
  2853 ;; Hardware stack levels required when called: 4
  2854 ;; This function calls:
  2855 ;;		Nothing
  2856 ;; This function is called by:
  2857 ;;		_main
  2858 ;; This function uses a non-reentrant model
  2859 ;;
  2860                           
  2861                           
  2862                           ;psect for function _IOCCF3_SetInterruptHandler
  2863  0245                     _IOCCF3_SetInterruptHandler:
  2864  0245                     l1261:	
  2865                           ;incstack = 0
  2866                           ; Regs used in _IOCCF3_SetInterruptHandler: [wreg]
  2867                           
  2868                           
  2869                           ;main.c: 141:     IOCCF3_InterruptHandler = InterruptHandler;
  2870  0245  087A               	movf	IOCCF3_SetInterruptHandler@InterruptHandler+1,w
  2871  0246  0020               	movlb	0	; select bank0
  2872  0247  00A1               	movwf	_IOCCF3_InterruptHandler+1
  2873  0248  0879               	movf	IOCCF3_SetInterruptHandler@InterruptHandler,w
  2874  0249  00A0               	movwf	_IOCCF3_InterruptHandler
  2875  024A                     l145:
  2876  024A  0008               	return
  2877  024B                     __end_of_IOCCF3_SetInterruptHandler:
  2878                           
  2879                           	psect	text6
  2880  024B                     __ptext6:	
  2881 ;; *************** function _IOCCF2_SetInterruptHandler *****************
  2882 ;; Defined at:
  2883 ;;		line 124 in file "main.c"
  2884 ;; Parameters:    Size  Location     Type
  2885 ;;  InterruptHan    2    1[COMMON] PTR FTN()void 
  2886 ;;		 -> IOCCF2_DefaultInterruptHandler(1), 
  2887 ;; Auto vars:     Size  Location     Type
  2888 ;;		None
  2889 ;; Return value:  Size  Location     Type
  2890 ;;                  1    wreg      void 
  2891 ;; Registers used:
  2892 ;;		wreg
  2893 ;; Tracked objects:
  2894 ;;		On entry : 0/0
  2895 ;;		On exit  : 0/0
  2896 ;;		Unchanged: 0/0
  2897 ;; Data sizes:     COMMON   BANK0   BANK1   BANK2   BANK3   BANK4   BANK5   BANK6   BANK7   BANK8   BANK9  BANK10  BANK1
      +1  BANK12
  2898 ;;      Params:         2       0       0       0       0       0       0       0       0       0       0       0       
      +0       0
  2899 ;;      Locals:         0       0       0       0       0       0       0       0       0       0       0       0       
      +0       0
  2900 ;;      Temps:          0       0       0       0       0       0       0       0       0       0       0       0       
      +0       0
  2901 ;;      Totals:         2       0       0       0       0       0       0       0       0       0       0       0       
      +0       0
  2902 ;;Total ram usage:        2 bytes
  2903 ;; Hardware stack levels used: 1
  2904 ;; Hardware stack levels required when called: 4
  2905 ;; This function calls:
  2906 ;;		Nothing
  2907 ;; This function is called by:
  2908 ;;		_main
  2909 ;; This function uses a non-reentrant model
  2910 ;;
  2911                           
  2912                           
  2913                           ;psect for function _IOCCF2_SetInterruptHandler
  2914  024B                     _IOCCF2_SetInterruptHandler:
  2915  024B                     l1259:	
  2916                           ;incstack = 0
  2917                           ; Regs used in _IOCCF2_SetInterruptHandler: [wreg]
  2918                           
  2919                           
  2920                           ;main.c: 125:     IOCCF2_InterruptHandler = InterruptHandler;
  2921  024B  087A               	movf	IOCCF2_SetInterruptHandler@InterruptHandler+1,w
  2922  024C  0020               	movlb	0	; select bank0
  2923  024D  00A3               	movwf	_IOCCF2_InterruptHandler+1
  2924  024E  0879               	movf	IOCCF2_SetInterruptHandler@InterruptHandler,w
  2925  024F  00A2               	movwf	_IOCCF2_InterruptHandler
  2926  0250                     l137:
  2927  0250  0008               	return
  2928  0251                     __end_of_IOCCF2_SetInterruptHandler:
  2929                           
  2930                           	psect	text7
  2931  0251                     __ptext7:	
  2932 ;; *************** function _IOCAF2_SetInterruptHandler *****************
  2933 ;; Defined at:
  2934 ;;		line 113 in file "main.c"
  2935 ;; Parameters:    Size  Location     Type
  2936 ;;  InterruptHan    2    1[COMMON] PTR FTN()void 
  2937 ;;		 -> IOCAF2_DefaultInterruptHandler(1), 
  2938 ;; Auto vars:     Size  Location     Type
  2939 ;;		None
  2940 ;; Return value:  Size  Location     Type
  2941 ;;                  1    wreg      void 
  2942 ;; Registers used:
  2943 ;;		wreg
  2944 ;; Tracked objects:
  2945 ;;		On entry : 0/0
  2946 ;;		On exit  : 0/0
  2947 ;;		Unchanged: 0/0
  2948 ;; Data sizes:     COMMON   BANK0   BANK1   BANK2   BANK3   BANK4   BANK5   BANK6   BANK7   BANK8   BANK9  BANK10  BANK1
      +1  BANK12
  2949 ;;      Params:         2       0       0       0       0       0       0       0       0       0       0       0       
      +0       0
  2950 ;;      Locals:         0       0       0       0       0       0       0       0       0       0       0       0       
      +0       0
  2951 ;;      Temps:          0       0       0       0       0       0       0       0       0       0       0       0       
      +0       0
  2952 ;;      Totals:         2       0       0       0       0       0       0       0       0       0       0       0       
      +0       0
  2953 ;;Total ram usage:        2 bytes
  2954 ;; Hardware stack levels used: 1
  2955 ;; Hardware stack levels required when called: 4
  2956 ;; This function calls:
  2957 ;;		Nothing
  2958 ;; This function is called by:
  2959 ;;		_main
  2960 ;; This function uses a non-reentrant model
  2961 ;;
  2962                           
  2963                           
  2964                           ;psect for function _IOCAF2_SetInterruptHandler
  2965  0251                     _IOCAF2_SetInterruptHandler:
  2966  0251                     l1257:	
  2967                           ;incstack = 0
  2968                           ; Regs used in _IOCAF2_SetInterruptHandler: [wreg]
  2969                           
  2970                           
  2971                           ;main.c: 114:     IOCAF2_InterruptHandler = InterruptHandler;
  2972  0251  087A               	movf	IOCAF2_SetInterruptHandler@InterruptHandler+1,w
  2973  0252  0020               	movlb	0	; select bank0
  2974  0253  00A5               	movwf	_IOCAF2_InterruptHandler+1
  2975  0254  0879               	movf	IOCAF2_SetInterruptHandler@InterruptHandler,w
  2976  0255  00A4               	movwf	_IOCAF2_InterruptHandler
  2977  0256                     l131:
  2978  0256  0008               	return
  2979  0257                     __end_of_IOCAF2_SetInterruptHandler:
  2980                           
  2981                           	psect	text8
  2982  0257                     __ptext8:	
  2983 ;; *************** function _IOCAF1_SetInterruptHandler *****************
  2984 ;; Defined at:
  2985 ;;		line 100 in file "main.c"
  2986 ;; Parameters:    Size  Location     Type
  2987 ;;  InterruptHan    2    1[COMMON] PTR FTN()void 
  2988 ;;		 -> IOCAF1_DefaultInterruptHandler(1), 
  2989 ;; Auto vars:     Size  Location     Type
  2990 ;;		None
  2991 ;; Return value:  Size  Location     Type
  2992 ;;                  1    wreg      void 
  2993 ;; Registers used:
  2994 ;;		wreg
  2995 ;; Tracked objects:
  2996 ;;		On entry : 0/0
  2997 ;;		On exit  : 0/0
  2998 ;;		Unchanged: 0/0
  2999 ;; Data sizes:     COMMON   BANK0   BANK1   BANK2   BANK3   BANK4   BANK5   BANK6   BANK7   BANK8   BANK9  BANK10  BANK1
      +1  BANK12
  3000 ;;      Params:         2       0       0       0       0       0       0       0       0       0       0       0       
      +0       0
  3001 ;;      Locals:         0       0       0       0       0       0       0       0       0       0       0       0       
      +0       0
  3002 ;;      Temps:          0       0       0       0       0       0       0       0       0       0       0       0       
      +0       0
  3003 ;;      Totals:         2       0       0       0       0       0       0       0       0       0       0       0       
      +0       0
  3004 ;;Total ram usage:        2 bytes
  3005 ;; Hardware stack levels used: 1
  3006 ;; Hardware stack levels required when called: 4
  3007 ;; This function calls:
  3008 ;;		Nothing
  3009 ;; This function is called by:
  3010 ;;		_main
  3011 ;; This function uses a non-reentrant model
  3012 ;;
  3013                           
  3014                           
  3015                           ;psect for function _IOCAF1_SetInterruptHandler
  3016  0257                     _IOCAF1_SetInterruptHandler:
  3017  0257                     l1255:	
  3018                           ;incstack = 0
  3019                           ; Regs used in _IOCAF1_SetInterruptHandler: [wreg]
  3020                           
  3021                           
  3022                           ;main.c: 101:     IOCAF1_InterruptHandler = InterruptHandler;
  3023  0257  087A               	movf	IOCAF1_SetInterruptHandler@InterruptHandler+1,w
  3024  0258  0020               	movlb	0	; select bank0
  3025  0259  00A7               	movwf	_IOCAF1_InterruptHandler+1
  3026  025A  0879               	movf	IOCAF1_SetInterruptHandler@InterruptHandler,w
  3027  025B  00A6               	movwf	_IOCAF1_InterruptHandler
  3028  025C                     l125:
  3029  025C  0008               	return
  3030  025D                     __end_of_IOCAF1_SetInterruptHandler:
  3031                           
  3032                           	psect	text9
  3033  025D                     __ptext9:	
  3034 ;; *************** function _IOCAF0_SetInterruptHandler *****************
  3035 ;; Defined at:
  3036 ;;		line 91 in file "main.c"
  3037 ;; Parameters:    Size  Location     Type
  3038 ;;  InterruptHan    2    1[COMMON] PTR FTN()void 
  3039 ;;		 -> IOCAF0_DefaultInterruptHandler(1), 
  3040 ;; Auto vars:     Size  Location     Type
  3041 ;;		None
  3042 ;; Return value:  Size  Location     Type
  3043 ;;                  1    wreg      void 
  3044 ;; Registers used:
  3045 ;;		wreg
  3046 ;; Tracked objects:
  3047 ;;		On entry : 0/0
  3048 ;;		On exit  : 0/0
  3049 ;;		Unchanged: 0/0
  3050 ;; Data sizes:     COMMON   BANK0   BANK1   BANK2   BANK3   BANK4   BANK5   BANK6   BANK7   BANK8   BANK9  BANK10  BANK1
      +1  BANK12
  3051 ;;      Params:         2       0       0       0       0       0       0       0       0       0       0       0       
      +0       0
  3052 ;;      Locals:         0       0       0       0       0       0       0       0       0       0       0       0       
      +0       0
  3053 ;;      Temps:          0       0       0       0       0       0       0       0       0       0       0       0       
      +0       0
  3054 ;;      Totals:         2       0       0       0       0       0       0       0       0       0       0       0       
      +0       0
  3055 ;;Total ram usage:        2 bytes
  3056 ;; Hardware stack levels used: 1
  3057 ;; Hardware stack levels required when called: 4
  3058 ;; This function calls:
  3059 ;;		Nothing
  3060 ;; This function is called by:
  3061 ;;		_main
  3062 ;; This function uses a non-reentrant model
  3063 ;;
  3064                           
  3065                           
  3066                           ;psect for function _IOCAF0_SetInterruptHandler
  3067  025D                     _IOCAF0_SetInterruptHandler:
  3068  025D                     l1253:	
  3069                           ;incstack = 0
  3070                           ; Regs used in _IOCAF0_SetInterruptHandler: [wreg]
  3071                           
  3072                           
  3073                           ;main.c: 92:     IOCAF0_InterruptHandler = InterruptHandler;
  3074  025D  087A               	movf	IOCAF0_SetInterruptHandler@InterruptHandler+1,w
  3075  025E  0020               	movlb	0	; select bank0
  3076  025F  00A9               	movwf	_IOCAF0_InterruptHandler+1
  3077  0260  0879               	movf	IOCAF0_SetInterruptHandler@InterruptHandler,w
  3078  0261  00A8               	movwf	_IOCAF0_InterruptHandler
  3079  0262                     l119:
  3080  0262  0008               	return
  3081  0263                     __end_of_IOCAF0_SetInterruptHandler:
  3082                           
  3083                           	psect	intentry
  3084  0004                     __pintentry:	
  3085 ;; *************** function _interrupcion *****************
  3086 ;; Defined at:
  3087 ;;		line 180 in file "main.c"
  3088 ;; Parameters:    Size  Location     Type
  3089 ;;		None
  3090 ;; Auto vars:     Size  Location     Type
  3091 ;;		None
  3092 ;; Return value:  Size  Location     Type
  3093 ;;                  1    wreg      void 
  3094 ;; Registers used:
  3095 ;;		wreg, status,2, status,0, pclath, cstack
  3096 ;; Tracked objects:
  3097 ;;		On entry : 0/0
  3098 ;;		On exit  : 0/0
  3099 ;;		Unchanged: 0/0
  3100 ;; Data sizes:     COMMON   BANK0   BANK1   BANK2   BANK3   BANK4   BANK5   BANK6   BANK7   BANK8   BANK9  BANK10  BANK1
      +1  BANK12
  3101 ;;      Params:         0       0       0       0       0       0       0       0       0       0       0       0       
      +0       0
  3102 ;;      Locals:         0       0       0       0       0       0       0       0       0       0       0       0       
      +0       0
  3103 ;;      Temps:          0       0       0       0       0       0       0       0       0       0       0       0       
      +0       0
  3104 ;;      Totals:         0       0       0       0       0       0       0       0       0       0       0       0       
      +0       0
  3105 ;;Total ram usage:        0 bytes
  3106 ;; Hardware stack levels used: 1
  3107 ;; Hardware stack levels required when called: 3
  3108 ;; This function calls:
  3109 ;;		_PIN_MANAGER_IOC
  3110 ;;		_TMR0_ISR
  3111 ;; This function is called by:
  3112 ;;		Interrupt level 1
  3113 ;; This function uses a non-reentrant model
  3114 ;;
  3115                           
  3116  0004                     _interrupcion:
  3117                           
  3118                           ;incstack = 0
  3119  0004  147E               	bsf	int$flags,0	;set compiler interrupt flag (level 1)
  3120                           
  3121                           ; Regs used in _interrupcion: [wreg+status,2+status,0+pclath+cstack]
  3122  0005  3180               	pagesel	$
  3123  0006                     i1l1331:
  3124                           
  3125                           ;main.c: 182:     if(PIE0bits.TMR0IE == 1 && PIR0bits.TMR0IF == 1)
  3126  0006  002E               	movlb	14	; select bank14
  3127  0007  1E96               	btfss	22,5	;volatile
  3128  0008  280A               	goto	u37_21
  3129  0009  280B               	goto	u37_20
  3130  000A                     u37_21:
  3131  000A  2813               	goto	i1l166
  3132  000B                     u37_20:
  3133  000B                     i1l1333:
  3134  000B  1E8C               	btfss	12,5	;volatile
  3135  000C  280E               	goto	u38_21
  3136  000D  280F               	goto	u38_20
  3137  000E                     u38_21:
  3138  000E  2813               	goto	i1l166
  3139  000F                     u38_20:
  3140  000F                     i1l1335:
  3141                           
  3142                           ;main.c: 183:     {;main.c: 184:         TMR0_ISR();
  3143  000F  3181  21C9  3180   	fcall	_TMR0_ISR
  3144                           
  3145                           ;main.c: 185:     }
  3146  0012  281E               	goto	i1l170
  3147  0013                     i1l166:	
  3148                           ;main.c: 186:     else if(PIE0bits.IOCIE == 1 && PIR0bits.IOCIF == 1)
  3149                           
  3150  0013  1E16               	btfss	22,4	;volatile
  3151  0014  2816               	goto	u39_21
  3152  0015  2817               	goto	u39_20
  3153  0016                     u39_21:
  3154  0016  281E               	goto	i1l170
  3155  0017                     u39_20:
  3156  0017                     i1l1337:
  3157  0017  1E0C               	btfss	12,4	;volatile
  3158  0018  281A               	goto	u40_21
  3159  0019  281B               	goto	u40_20
  3160  001A                     u40_21:
  3161  001A  281E               	goto	i1l170
  3162  001B                     u40_20:
  3163  001B                     i1l1339:
  3164                           
  3165                           ;main.c: 187:     {;main.c: 188:         PIN_MANAGER_IOC();
  3166  001B  3181  2152  3180   	fcall	_PIN_MANAGER_IOC
  3167  001E                     i1l170:	
  3168                           ;main.c: 189:     }
  3169                           
  3170  001E  107E               	bcf	int$flags,0	;clear compiler interrupt flag (level 1)
  3171  001F  0009               	retfie
  3172  0020                     __end_of_interrupcion:
  3173                           
  3174                           	psect	text11
  3175  01C9                     __ptext11:	
  3176 ;; *************** function _TMR0_ISR *****************
  3177 ;; Defined at:
  3178 ;;		line 159 in file "main.c"
  3179 ;; Parameters:    Size  Location     Type
  3180 ;;		None
  3181 ;; Auto vars:     Size  Location     Type
  3182 ;;		None
  3183 ;; Return value:  Size  Location     Type
  3184 ;;                  1    wreg      void 
  3185 ;; Registers used:
  3186 ;;		wreg, status,2, status,0, pclath, cstack
  3187 ;; Tracked objects:
  3188 ;;		On entry : 0/0
  3189 ;;		On exit  : 0/0
  3190 ;;		Unchanged: 0/0
  3191 ;; Data sizes:     COMMON   BANK0   BANK1   BANK2   BANK3   BANK4   BANK5   BANK6   BANK7   BANK8   BANK9  BANK10  BANK1
      +1  BANK12
  3192 ;;      Params:         0       0       0       0       0       0       0       0       0       0       0       0       
      +0       0
  3193 ;;      Locals:         0       0       0       0       0       0       0       0       0       0       0       0       
      +0       0
  3194 ;;      Temps:          0       0       0       0       0       0       0       0       0       0       0       0       
      +0       0
  3195 ;;      Totals:         0       0       0       0       0       0       0       0       0       0       0       0       
      +0       0
  3196 ;;Total ram usage:        0 bytes
  3197 ;; Hardware stack levels used: 1
  3198 ;; Hardware stack levels required when called: 1
  3199 ;; This function calls:
  3200 ;;		Absolute function
  3201 ;;		_TMR0_DefaultInterruptHandler
  3202 ;; This function is called by:
  3203 ;;		_interrupcion
  3204 ;; This function uses a non-reentrant model
  3205 ;;
  3206                           
  3207                           
  3208                           ;psect for function _TMR0_ISR
  3209  01C9                     _TMR0_ISR:
  3210  01C9                     i1l1263:	
  3211                           ;incstack = 0
  3212                           ; Regs used in _TMR0_ISR: [wreg+status,2+status,0+pclath+cstack]
  3213                           
  3214                           
  3215                           ;main.c: 161:     PIR0bits.TMR0IF = 0;
  3216  01C9  002E               	movlb	14	; select bank14
  3217  01CA  128C               	bcf	12,5	;volatile
  3218  01CB                     i1l1265:
  3219                           
  3220                           ;main.c: 162:     if(TMR0_InterruptHandler)
  3221  01CB  0020               	movlb	0	; select bank0
  3222  01CC  082A               	movf	_TMR0_InterruptHandler,w
  3223  01CD  042B               	iorwf	_TMR0_InterruptHandler+1,w
  3224  01CE  1903               	btfsc	3,2
  3225  01CF  29D1               	goto	u36_21
  3226  01D0  29D2               	goto	u36_20
  3227  01D1                     u36_21:
  3228  01D1  29D7               	goto	i1l154
  3229  01D2                     u36_20:
  3230  01D2                     i1l1267:
  3231                           
  3232                           ;main.c: 163:     {;main.c: 164:         TMR0_InterruptHandler();
  3233  01D2  082B               	movf	_TMR0_InterruptHandler+1,w
  3234  01D3  008A               	movwf	10
  3235  01D4  082A               	movf	_TMR0_InterruptHandler,w
  3236  01D5  000A               	callw
  3237  01D6  3181               	pagesel	$
  3238  01D7                     i1l154:
  3239  01D7  0008               	return
  3240  01D8                     __end_of_TMR0_ISR:
  3241                           
  3242                           	psect	text12
  3243  0223                     __ptext12:	
  3244 ;; *************** function _TMR0_DefaultInterruptHandler *****************
  3245 ;; Defined at:
  3246 ;;		line 173 in file "main.c"
  3247 ;; Parameters:    Size  Location     Type
  3248 ;;		None
  3249 ;; Auto vars:     Size  Location     Type
  3250 ;;		None
  3251 ;; Return value:  Size  Location     Type
  3252 ;;                  1    wreg      void 
  3253 ;; Registers used:
  3254 ;;		wreg, status,2, status,0
  3255 ;; Tracked objects:
  3256 ;;		On entry : 0/0
  3257 ;;		On exit  : 0/0
  3258 ;;		Unchanged: 0/0
  3259 ;; Data sizes:     COMMON   BANK0   BANK1   BANK2   BANK3   BANK4   BANK5   BANK6   BANK7   BANK8   BANK9  BANK10  BANK1
      +1  BANK12
  3260 ;;      Params:         0       0       0       0       0       0       0       0       0       0       0       0       
      +0       0
  3261 ;;      Locals:         0       0       0       0       0       0       0       0       0       0       0       0       
      +0       0
  3262 ;;      Temps:          0       0       0       0       0       0       0       0       0       0       0       0       
      +0       0
  3263 ;;      Totals:         0       0       0       0       0       0       0       0       0       0       0       0       
      +0       0
  3264 ;;Total ram usage:        0 bytes
  3265 ;; Hardware stack levels used: 1
  3266 ;; This function calls:
  3267 ;;		Nothing
  3268 ;; This function is called by:
  3269 ;;		_main
  3270 ;;		_TMR0_ISR
  3271 ;; This function uses a non-reentrant model
  3272 ;;
  3273                           
  3274                           
  3275                           ;psect for function _TMR0_DefaultInterruptHandler
  3276  0223                     _TMR0_DefaultInterruptHandler:
  3277  0223                     i1l1227:	
  3278                           ;incstack = 0
  3279                           ; Regs used in _TMR0_DefaultInterruptHandler: [wreg+status,2+status,0]
  3280                           
  3281                           
  3282                           ;main.c: 174:     i+= 1;
  3283  0223  3001               	movlw	1
  3284  0224  07FB               	addwf	_i,f
  3285  0225  3000               	movlw	0
  3286  0226  3DFC               	addwfc	_i+1,f
  3287  0227                     i1l1229:
  3288                           
  3289                           ;main.c: 175:     if(i==5){
  3290  0227  3005               	movlw	5
  3291  0228  067B               	xorwf	_i,w
  3292  0229  047C               	iorwf	_i+1,w
  3293  022A  1D03               	btfss	3,2
  3294  022B  2A2D               	goto	u30_21
  3295  022C  2A2E               	goto	u30_20
  3296  022D                     u30_21:
  3297  022D  2A30               	goto	i1l161
  3298  022E                     u30_20:
  3299  022E                     i1l1231:
  3300                           
  3301                           ;main.c: 176:         i=0;
  3302  022E  01FB               	clrf	_i
  3303  022F  01FC               	clrf	_i+1
  3304  0230                     i1l161:
  3305  0230  0008               	return
  3306  0231                     __end_of_TMR0_DefaultInterruptHandler:
  3307                           
  3308                           	psect	text13
  3309  0152                     __ptext13:	
  3310 ;; *************** function _PIN_MANAGER_IOC *****************
  3311 ;; Defined at:
  3312 ;;		line 66 in file "main.c"
  3313 ;; Parameters:    Size  Location     Type
  3314 ;;		None
  3315 ;; Auto vars:     Size  Location     Type
  3316 ;;		None
  3317 ;; Return value:  Size  Location     Type
  3318 ;;                  1    wreg      void 
  3319 ;; Registers used:
  3320 ;;		wreg, status,2, status,0, pclath, cstack
  3321 ;; Tracked objects:
  3322 ;;		On entry : 0/0
  3323 ;;		On exit  : 0/0
  3324 ;;		Unchanged: 0/0
  3325 ;; Data sizes:     COMMON   BANK0   BANK1   BANK2   BANK3   BANK4   BANK5   BANK6   BANK7   BANK8   BANK9  BANK10  BANK1
      +1  BANK12
  3326 ;;      Params:         0       0       0       0       0       0       0       0       0       0       0       0       
      +0       0
  3327 ;;      Locals:         0       0       0       0       0       0       0       0       0       0       0       0       
      +0       0
  3328 ;;      Temps:          0       0       0       0       0       0       0       0       0       0       0       0       
      +0       0
  3329 ;;      Totals:         0       0       0       0       0       0       0       0       0       0       0       0       
      +0       0
  3330 ;;Total ram usage:        0 bytes
  3331 ;; Hardware stack levels used: 1
  3332 ;; Hardware stack levels required when called: 2
  3333 ;; This function calls:
  3334 ;;		_IOCAF0_ISR
  3335 ;;		_IOCAF1_ISR
  3336 ;;		_IOCAF2_ISR
  3337 ;;		_IOCCF2_ISR
  3338 ;;		_IOCCF3_ISR
  3339 ;; This function is called by:
  3340 ;;		_interrupcion
  3341 ;; This function uses a non-reentrant model
  3342 ;;
  3343                           
  3344                           
  3345                           ;psect for function _PIN_MANAGER_IOC
  3346  0152                     _PIN_MANAGER_IOC:
  3347  0152                     i1l1233:	
  3348                           ;incstack = 0
  3349                           ; Regs used in _PIN_MANAGER_IOC: [wreg+status,2+status,0+pclath+cstack]
  3350                           
  3351                           
  3352                           ;main.c: 68:     if(IOCAFbits.IOCAF0 == 1)
  3353  0152  003E               	movlb	30	; select bank30
  3354  0153  1C3F               	btfss	63,0	;volatile
  3355  0154  2956               	goto	u31_21
  3356  0155  2957               	goto	u31_20
  3357  0156                     u31_21:
  3358  0156  295A               	goto	i1l1237
  3359  0157                     u31_20:
  3360  0157                     i1l1235:
  3361                           
  3362                           ;main.c: 69:     {;main.c: 70:         IOCAF0_ISR();
  3363  0157  3182  2214  3181   	fcall	_IOCAF0_ISR
  3364  015A                     i1l1237:
  3365                           
  3366                           ;main.c: 72:     if(IOCAFbits.IOCAF1 == 1)
  3367  015A  003E               	movlb	30	; select bank30
  3368  015B  1CBF               	btfss	63,1	;volatile
  3369  015C  295E               	goto	u32_21
  3370  015D  295F               	goto	u32_20
  3371  015E                     u32_21:
  3372  015E  2962               	goto	i1l1241
  3373  015F                     u32_20:
  3374  015F                     i1l1239:
  3375                           
  3376                           ;main.c: 73:     {;main.c: 74:         IOCAF1_ISR();
  3377  015F  3182  2205  3181   	fcall	_IOCAF1_ISR
  3378  0162                     i1l1241:
  3379                           
  3380                           ;main.c: 76:     if(IOCAFbits.IOCAF2 == 1)
  3381  0162  003E               	movlb	30	; select bank30
  3382  0163  1D3F               	btfss	63,2	;volatile
  3383  0164  2966               	goto	u33_21
  3384  0165  2967               	goto	u33_20
  3385  0166                     u33_21:
  3386  0166  296A               	goto	i1l1245
  3387  0167                     u33_20:
  3388  0167                     i1l1243:
  3389                           
  3390                           ;main.c: 77:     {;main.c: 78:         IOCAF2_ISR();
  3391  0167  3181  21F6  3181   	fcall	_IOCAF2_ISR
  3392  016A                     i1l1245:
  3393                           
  3394                           ;main.c: 80:     if(IOCCFbits.IOCCF2 == 1)
  3395  016A  003E               	movlb	30	; select bank30
  3396  016B  1D55               	btfss	85,2	;volatile
  3397  016C  296E               	goto	u34_21
  3398  016D  296F               	goto	u34_20
  3399  016E                     u34_21:
  3400  016E  2972               	goto	i1l1249
  3401  016F                     u34_20:
  3402  016F                     i1l1247:
  3403                           
  3404                           ;main.c: 81:     {;main.c: 82:         IOCCF2_ISR();
  3405  016F  3181  21E7  3181   	fcall	_IOCCF2_ISR
  3406  0172                     i1l1249:
  3407                           
  3408                           ;main.c: 84:     if(IOCCFbits.IOCCF3 == 1)
  3409  0172  003E               	movlb	30	; select bank30
  3410  0173  1DD5               	btfss	85,3	;volatile
  3411  0174  2976               	goto	u35_21
  3412  0175  2977               	goto	u35_20
  3413  0176                     u35_21:
  3414  0176  297A               	goto	i1l116
  3415  0177                     u35_20:
  3416  0177                     i1l1251:
  3417                           
  3418                           ;main.c: 85:     {;main.c: 86:         IOCCF3_ISR();
  3419  0177  3181  21D8  3181   	fcall	_IOCCF3_ISR
  3420  017A                     i1l116:
  3421  017A  0008               	return
  3422  017B                     __end_of_PIN_MANAGER_IOC:
  3423                           
  3424                           	psect	text14
  3425  01D8                     __ptext14:	
  3426 ;; *************** function _IOCCF3_ISR *****************
  3427 ;; Defined at:
  3428 ;;		line 57 in file "main.c"
  3429 ;; Parameters:    Size  Location     Type
  3430 ;;		None
  3431 ;; Auto vars:     Size  Location     Type
  3432 ;;		None
  3433 ;; Return value:  Size  Location     Type
  3434 ;;                  1    wreg      void 
  3435 ;; Registers used:
  3436 ;;		wreg, status,2, status,0, pclath, cstack
  3437 ;; Tracked objects:
  3438 ;;		On entry : 0/0
  3439 ;;		On exit  : 0/0
  3440 ;;		Unchanged: 0/0
  3441 ;; Data sizes:     COMMON   BANK0   BANK1   BANK2   BANK3   BANK4   BANK5   BANK6   BANK7   BANK8   BANK9  BANK10  BANK1
      +1  BANK12
  3442 ;;      Params:         0       0       0       0       0       0       0       0       0       0       0       0       
      +0       0
  3443 ;;      Locals:         0       0       0       0       0       0       0       0       0       0       0       0       
      +0       0
  3444 ;;      Temps:          0       0       0       0       0       0       0       0       0       0       0       0       
      +0       0
  3445 ;;      Totals:         0       0       0       0       0       0       0       0       0       0       0       0       
      +0       0
  3446 ;;Total ram usage:        0 bytes
  3447 ;; Hardware stack levels used: 1
  3448 ;; Hardware stack levels required when called: 1
  3449 ;; This function calls:
  3450 ;;		Absolute function
  3451 ;;		_IOCCF3_DefaultInterruptHandler
  3452 ;; This function is called by:
  3453 ;;		_PIN_MANAGER_IOC
  3454 ;; This function uses a non-reentrant model
  3455 ;;
  3456                           
  3457                           
  3458                           ;psect for function _IOCCF3_ISR
  3459  01D8                     _IOCCF3_ISR:
  3460  01D8                     i1l1221:	
  3461                           ;incstack = 0
  3462                           ; Regs used in _IOCCF3_ISR: [wreg+status,2+status,0+pclath+cstack]
  3463                           
  3464                           
  3465                           ;main.c: 59:     if(IOCCF3_InterruptHandler)
  3466  01D8  0020               	movlb	0	; select bank0
  3467  01D9  0820               	movf	_IOCCF3_InterruptHandler,w
  3468  01DA  0421               	iorwf	_IOCCF3_InterruptHandler+1,w
  3469  01DB  1903               	btfsc	3,2
  3470  01DC  29DE               	goto	u29_21
  3471  01DD  29DF               	goto	u29_20
  3472  01DE                     u29_21:
  3473  01DE  29E4               	goto	i1l1225
  3474  01DF                     u29_20:
  3475  01DF                     i1l1223:
  3476                           
  3477                           ;main.c: 60:     {;main.c: 61:         IOCCF3_InterruptHandler();
  3478  01DF  0821               	movf	_IOCCF3_InterruptHandler+1,w
  3479  01E0  008A               	movwf	10
  3480  01E1  0820               	movf	_IOCCF3_InterruptHandler,w
  3481  01E2  000A               	callw
  3482  01E3  3181               	pagesel	$
  3483  01E4                     i1l1225:
  3484                           
  3485                           ;main.c: 63:     IOCCFbits.IOCCF3 = 0;
  3486  01E4  003E               	movlb	30	; select bank30
  3487  01E5  11D5               	bcf	85,3	;volatile
  3488  01E6                     i1l108:
  3489  01E6  0008               	return
  3490  01E7                     __end_of_IOCCF3_ISR:
  3491                           
  3492                           	psect	text15
  3493  017B                     __ptext15:	
  3494 ;; *************** function _IOCCF3_DefaultInterruptHandler *****************
  3495 ;; Defined at:
  3496 ;;		line 144 in file "main.c"
  3497 ;; Parameters:    Size  Location     Type
  3498 ;;		None
  3499 ;; Auto vars:     Size  Location     Type
  3500 ;;		None
  3501 ;; Return value:  Size  Location     Type
  3502 ;;                  1    wreg      void 
  3503 ;; Registers used:
  3504 ;;		wreg
  3505 ;; Tracked objects:
  3506 ;;		On entry : 0/0
  3507 ;;		On exit  : 0/0
  3508 ;;		Unchanged: 0/0
  3509 ;; Data sizes:     COMMON   BANK0   BANK1   BANK2   BANK3   BANK4   BANK5   BANK6   BANK7   BANK8   BANK9  BANK10  BANK1
      +1  BANK12
  3510 ;;      Params:         0       0       0       0       0       0       0       0       0       0       0       0       
      +0       0
  3511 ;;      Locals:         0       0       0       0       0       0       0       0       0       0       0       0       
      +0       0
  3512 ;;      Temps:          1       0       0       0       0       0       0       0       0       0       0       0       
      +0       0
  3513 ;;      Totals:         1       0       0       0       0       0       0       0       0       0       0       0       
      +0       0
  3514 ;;Total ram usage:        1 bytes
  3515 ;; Hardware stack levels used: 1
  3516 ;; This function calls:
  3517 ;;		Nothing
  3518 ;; This function is called by:
  3519 ;;		_main
  3520 ;;		_IOCCF3_ISR
  3521 ;; This function uses a non-reentrant model
  3522 ;;
  3523                           
  3524                           
  3525                           ;psect for function _IOCCF3_DefaultInterruptHandler
  3526  017B                     _IOCCF3_DefaultInterruptHandler:
  3527  017B                     i1l1189:	
  3528                           ;incstack = 0
  3529                           ; Regs used in _IOCCF3_DefaultInterruptHandler: [wreg]
  3530                           
  3531                           
  3532                           ;main.c: 145:     x+=10;
  3533  017B  300A               	movlw	10
  3534  017C  07F0               	addwf	_x,f
  3535  017D  3000               	movlw	0
  3536  017E  3DF1               	addwfc	_x+1,f
  3537                           
  3538                           ;main.c: 146:     if(x>= 10 && x<=240 ){
  3539  017F  0871               	movf	_x+1,w
  3540  0180  3A80               	xorlw	128
  3541  0181  00F8               	movwf	??_IOCCF3_DefaultInterruptHandler
  3542  0182  3080               	movlw	128
  3543  0183  0278               	subwf	??_IOCCF3_DefaultInterruptHandler,w
  3544  0184  1D03               	skipz
  3545  0185  2988               	goto	u23_25
  3546  0186  300A               	movlw	10
  3547  0187  0270               	subwf	_x,w
  3548  0188                     u23_25:
  3549  0188  1C03               	skipc
  3550  0189  298B               	goto	u23_21
  3551  018A  298C               	goto	u23_20
  3552  018B                     u23_21:
  3553  018B  299D               	goto	i1l1195
  3554  018C                     u23_20:
  3555  018C                     i1l1191:
  3556  018C  0871               	movf	_x+1,w
  3557  018D  3A80               	xorlw	128
  3558  018E  00F8               	movwf	??_IOCCF3_DefaultInterruptHandler
  3559  018F  3080               	movlw	128
  3560  0190  0278               	subwf	??_IOCCF3_DefaultInterruptHandler,w
  3561  0191  1D03               	skipz
  3562  0192  2995               	goto	u24_25
  3563  0193  30F1               	movlw	241
  3564  0194  0270               	subwf	_x,w
  3565  0195                     u24_25:
  3566  0195  1803               	skipnc
  3567  0196  2998               	goto	u24_21
  3568  0197  2999               	goto	u24_20
  3569  0198                     u24_21:
  3570  0198  299D               	goto	i1l1195
  3571  0199                     u24_20:
  3572  0199                     i1l1193:
  3573                           
  3574                           ;main.c: 147:     TMR0H = x;
  3575  0199  0870               	movf	_x,w
  3576  019A  0020               	movlb	0	; select bank0
  3577  019B  009D               	movwf	29	;volatile
  3578                           
  3579                           ;main.c: 149:     }else{
  3580  019C  29A1               	goto	i1l150
  3581  019D                     i1l1195:
  3582                           
  3583                           ;main.c: 150:         x=240;
  3584  019D  30F0               	movlw	240
  3585  019E  00F0               	movwf	_x
  3586  019F  3000               	movlw	0
  3587  01A0  00F1               	movwf	_x+1
  3588  01A1                     i1l150:
  3589  01A1  0008               	return
  3590  01A2                     __end_of_IOCCF3_DefaultInterruptHandler:
  3591                           
  3592                           	psect	text16
  3593  01E7                     __ptext16:	
  3594 ;; *************** function _IOCCF2_ISR *****************
  3595 ;; Defined at:
  3596 ;;		line 47 in file "main.c"
  3597 ;; Parameters:    Size  Location     Type
  3598 ;;		None
  3599 ;; Auto vars:     Size  Location     Type
  3600 ;;		None
  3601 ;; Return value:  Size  Location     Type
  3602 ;;                  1    wreg      void 
  3603 ;; Registers used:
  3604 ;;		wreg, status,2, status,0, pclath, cstack
  3605 ;; Tracked objects:
  3606 ;;		On entry : 0/0
  3607 ;;		On exit  : 0/0
  3608 ;;		Unchanged: 0/0
  3609 ;; Data sizes:     COMMON   BANK0   BANK1   BANK2   BANK3   BANK4   BANK5   BANK6   BANK7   BANK8   BANK9  BANK10  BANK1
      +1  BANK12
  3610 ;;      Params:         0       0       0       0       0       0       0       0       0       0       0       0       
      +0       0
  3611 ;;      Locals:         0       0       0       0       0       0       0       0       0       0       0       0       
      +0       0
  3612 ;;      Temps:          0       0       0       0       0       0       0       0       0       0       0       0       
      +0       0
  3613 ;;      Totals:         0       0       0       0       0       0       0       0       0       0       0       0       
      +0       0
  3614 ;;Total ram usage:        0 bytes
  3615 ;; Hardware stack levels used: 1
  3616 ;; Hardware stack levels required when called: 1
  3617 ;; This function calls:
  3618 ;;		Absolute function
  3619 ;;		_IOCCF2_DefaultInterruptHandler
  3620 ;; This function is called by:
  3621 ;;		_PIN_MANAGER_IOC
  3622 ;; This function uses a non-reentrant model
  3623 ;;
  3624                           
  3625                           
  3626                           ;psect for function _IOCCF2_ISR
  3627  01E7                     _IOCCF2_ISR:
  3628  01E7                     i1l1215:	
  3629                           ;incstack = 0
  3630                           ; Regs used in _IOCCF2_ISR: [wreg+status,2+status,0+pclath+cstack]
  3631                           
  3632                           
  3633                           ;main.c: 49:     if(IOCCF2_InterruptHandler)
  3634  01E7  0020               	movlb	0	; select bank0
  3635  01E8  0822               	movf	_IOCCF2_InterruptHandler,w
  3636  01E9  0423               	iorwf	_IOCCF2_InterruptHandler+1,w
  3637  01EA  1903               	btfsc	3,2
  3638  01EB  29ED               	goto	u28_21
  3639  01EC  29EE               	goto	u28_20
  3640  01ED                     u28_21:
  3641  01ED  29F3               	goto	i1l1219
  3642  01EE                     u28_20:
  3643  01EE                     i1l1217:
  3644                           
  3645                           ;main.c: 50:     {;main.c: 51:         IOCCF2_InterruptHandler();
  3646  01EE  0823               	movf	_IOCCF2_InterruptHandler+1,w
  3647  01EF  008A               	movwf	10
  3648  01F0  0822               	movf	_IOCCF2_InterruptHandler,w
  3649  01F1  000A               	callw
  3650  01F2  3181               	pagesel	$
  3651  01F3                     i1l1219:
  3652                           
  3653                           ;main.c: 53:     IOCCFbits.IOCCF2 = 0;
  3654  01F3  003E               	movlb	30	; select bank30
  3655  01F4  1155               	bcf	85,2	;volatile
  3656  01F5                     i1l104:
  3657  01F5  0008               	return
  3658  01F6                     __end_of_IOCCF2_ISR:
  3659                           
  3660                           	psect	text17
  3661  01A2                     __ptext17:	
  3662 ;; *************** function _IOCCF2_DefaultInterruptHandler *****************
  3663 ;; Defined at:
  3664 ;;		line 128 in file "main.c"
  3665 ;; Parameters:    Size  Location     Type
  3666 ;;		None
  3667 ;; Auto vars:     Size  Location     Type
  3668 ;;		None
  3669 ;; Return value:  Size  Location     Type
  3670 ;;                  1    wreg      void 
  3671 ;; Registers used:
  3672 ;;		wreg
  3673 ;; Tracked objects:
  3674 ;;		On entry : 0/0
  3675 ;;		On exit  : 0/0
  3676 ;;		Unchanged: 0/0
  3677 ;; Data sizes:     COMMON   BANK0   BANK1   BANK2   BANK3   BANK4   BANK5   BANK6   BANK7   BANK8   BANK9  BANK10  BANK1
      +1  BANK12
  3678 ;;      Params:         0       0       0       0       0       0       0       0       0       0       0       0       
      +0       0
  3679 ;;      Locals:         0       0       0       0       0       0       0       0       0       0       0       0       
      +0       0
  3680 ;;      Temps:          1       0       0       0       0       0       0       0       0       0       0       0       
      +0       0
  3681 ;;      Totals:         1       0       0       0       0       0       0       0       0       0       0       0       
      +0       0
  3682 ;;Total ram usage:        1 bytes
  3683 ;; Hardware stack levels used: 1
  3684 ;; This function calls:
  3685 ;;		Nothing
  3686 ;; This function is called by:
  3687 ;;		_main
  3688 ;;		_IOCCF2_ISR
  3689 ;; This function uses a non-reentrant model
  3690 ;;
  3691                           
  3692                           
  3693                           ;psect for function _IOCCF2_DefaultInterruptHandler
  3694  01A2                     _IOCCF2_DefaultInterruptHandler:
  3695  01A2                     i1l1181:	
  3696                           ;incstack = 0
  3697                           ; Regs used in _IOCCF2_DefaultInterruptHandler: [wreg]
  3698                           
  3699                           
  3700                           ;main.c: 130:     x-=10;
  3701  01A2  30F6               	movlw	246
  3702  01A3  07F0               	addwf	_x,f
  3703  01A4  30FF               	movlw	255
  3704  01A5  3DF1               	addwfc	_x+1,f
  3705                           
  3706                           ;main.c: 131:     if(x>= 10 && x<=240 ){
  3707  01A6  0871               	movf	_x+1,w
  3708  01A7  3A80               	xorlw	128
  3709  01A8  00F8               	movwf	??_IOCCF2_DefaultInterruptHandler
  3710  01A9  3080               	movlw	128
  3711  01AA  0278               	subwf	??_IOCCF2_DefaultInterruptHandler,w
  3712  01AB  1D03               	skipz
  3713  01AC  29AF               	goto	u21_25
  3714  01AD  300A               	movlw	10
  3715  01AE  0270               	subwf	_x,w
  3716  01AF                     u21_25:
  3717  01AF  1C03               	skipc
  3718  01B0  29B2               	goto	u21_21
  3719  01B1  29B3               	goto	u21_20
  3720  01B2                     u21_21:
  3721  01B2  29C4               	goto	i1l1187
  3722  01B3                     u21_20:
  3723  01B3                     i1l1183:
  3724  01B3  0871               	movf	_x+1,w
  3725  01B4  3A80               	xorlw	128
  3726  01B5  00F8               	movwf	??_IOCCF2_DefaultInterruptHandler
  3727  01B6  3080               	movlw	128
  3728  01B7  0278               	subwf	??_IOCCF2_DefaultInterruptHandler,w
  3729  01B8  1D03               	skipz
  3730  01B9  29BC               	goto	u22_25
  3731  01BA  30F1               	movlw	241
  3732  01BB  0270               	subwf	_x,w
  3733  01BC                     u22_25:
  3734  01BC  1803               	skipnc
  3735  01BD  29BF               	goto	u22_21
  3736  01BE  29C0               	goto	u22_20
  3737  01BF                     u22_21:
  3738  01BF  29C4               	goto	i1l1187
  3739  01C0                     u22_20:
  3740  01C0                     i1l1185:
  3741                           
  3742                           ;main.c: 132:     TMR0H = x;
  3743  01C0  0870               	movf	_x,w
  3744  01C1  0020               	movlb	0	; select bank0
  3745  01C2  009D               	movwf	29	;volatile
  3746                           
  3747                           ;main.c: 134:     }else{
  3748  01C3  29C8               	goto	i1l142
  3749  01C4                     i1l1187:
  3750                           
  3751                           ;main.c: 135:         x=10;
  3752  01C4  300A               	movlw	10
  3753  01C5  00F0               	movwf	_x
  3754  01C6  3000               	movlw	0
  3755  01C7  00F1               	movwf	_x+1
  3756  01C8                     i1l142:
  3757  01C8  0008               	return
  3758  01C9                     __end_of_IOCCF2_DefaultInterruptHandler:
  3759                           
  3760                           	psect	text18
  3761  01F6                     __ptext18:	
  3762 ;; *************** function _IOCAF2_ISR *****************
  3763 ;; Defined at:
  3764 ;;		line 37 in file "main.c"
  3765 ;; Parameters:    Size  Location     Type
  3766 ;;		None
  3767 ;; Auto vars:     Size  Location     Type
  3768 ;;		None
  3769 ;; Return value:  Size  Location     Type
  3770 ;;                  1    wreg      void 
  3771 ;; Registers used:
  3772 ;;		wreg, status,2, status,0, pclath, cstack
  3773 ;; Tracked objects:
  3774 ;;		On entry : 0/0
  3775 ;;		On exit  : 0/0
  3776 ;;		Unchanged: 0/0
  3777 ;; Data sizes:     COMMON   BANK0   BANK1   BANK2   BANK3   BANK4   BANK5   BANK6   BANK7   BANK8   BANK9  BANK10  BANK1
      +1  BANK12
  3778 ;;      Params:         0       0       0       0       0       0       0       0       0       0       0       0       
      +0       0
  3779 ;;      Locals:         0       0       0       0       0       0       0       0       0       0       0       0       
      +0       0
  3780 ;;      Temps:          0       0       0       0       0       0       0       0       0       0       0       0       
      +0       0
  3781 ;;      Totals:         0       0       0       0       0       0       0       0       0       0       0       0       
      +0       0
  3782 ;;Total ram usage:        0 bytes
  3783 ;; Hardware stack levels used: 1
  3784 ;; Hardware stack levels required when called: 1
  3785 ;; This function calls:
  3786 ;;		Absolute function
  3787 ;;		_IOCAF2_DefaultInterruptHandler
  3788 ;; This function is called by:
  3789 ;;		_PIN_MANAGER_IOC
  3790 ;; This function uses a non-reentrant model
  3791 ;;
  3792                           
  3793                           
  3794                           ;psect for function _IOCAF2_ISR
  3795  01F6                     _IOCAF2_ISR:
  3796  01F6                     i1l1209:	
  3797                           ;incstack = 0
  3798                           ; Regs used in _IOCAF2_ISR: [wreg+status,2+status,0+pclath+cstack]
  3799                           
  3800                           
  3801                           ;main.c: 39:     if(IOCAF2_InterruptHandler)
  3802  01F6  0020               	movlb	0	; select bank0
  3803  01F7  0824               	movf	_IOCAF2_InterruptHandler,w
  3804  01F8  0425               	iorwf	_IOCAF2_InterruptHandler+1,w
  3805  01F9  1903               	btfsc	3,2
  3806  01FA  29FC               	goto	u27_21
  3807  01FB  29FD               	goto	u27_20
  3808  01FC                     u27_21:
  3809  01FC  2A02               	goto	i1l1213
  3810  01FD                     u27_20:
  3811  01FD                     i1l1211:
  3812                           
  3813                           ;main.c: 40:     {;main.c: 41:         IOCAF2_InterruptHandler();
  3814  01FD  0825               	movf	_IOCAF2_InterruptHandler+1,w
  3815  01FE  008A               	movwf	10
  3816  01FF  0824               	movf	_IOCAF2_InterruptHandler,w
  3817  0200  000A               	callw
  3818  0201  3181               	pagesel	$
  3819  0202                     i1l1213:
  3820                           
  3821                           ;main.c: 43:     IOCAFbits.IOCAF2 = 0;
  3822  0202  003E               	movlb	30	; select bank30
  3823  0203  113F               	bcf	63,2	;volatile
  3824  0204                     i1l100:
  3825  0204  0008               	return
  3826  0205                     __end_of_IOCAF2_ISR:
  3827                           
  3828                           	psect	text19
  3829  0271                     __ptext19:	
  3830 ;; *************** function _IOCAF2_DefaultInterruptHandler *****************
  3831 ;; Defined at:
  3832 ;;		line 118 in file "main.c"
  3833 ;; Parameters:    Size  Location     Type
  3834 ;;		None
  3835 ;; Auto vars:     Size  Location     Type
  3836 ;;		None
  3837 ;; Return value:  Size  Location     Type
  3838 ;;                  1    wreg      void 
  3839 ;; Registers used:
  3840 ;;		status,2
  3841 ;; Tracked objects:
  3842 ;;		On entry : 0/0
  3843 ;;		On exit  : 0/0
  3844 ;;		Unchanged: 0/0
  3845 ;; Data sizes:     COMMON   BANK0   BANK1   BANK2   BANK3   BANK4   BANK5   BANK6   BANK7   BANK8   BANK9  BANK10  BANK1
      +1  BANK12
  3846 ;;      Params:         0       0       0       0       0       0       0       0       0       0       0       0       
      +0       0
  3847 ;;      Locals:         0       0       0       0       0       0       0       0       0       0       0       0       
      +0       0
  3848 ;;      Temps:          0       0       0       0       0       0       0       0       0       0       0       0       
      +0       0
  3849 ;;      Totals:         0       0       0       0       0       0       0       0       0       0       0       0       
      +0       0
  3850 ;;Total ram usage:        0 bytes
  3851 ;; Hardware stack levels used: 1
  3852 ;; This function calls:
  3853 ;;		Nothing
  3854 ;; This function is called by:
  3855 ;;		_main
  3856 ;;		_IOCAF2_ISR
  3857 ;; This function uses a non-reentrant model
  3858 ;;
  3859                           
  3860                           
  3861                           ;psect for function _IOCAF2_DefaultInterruptHandler
  3862  0271                     _IOCAF2_DefaultInterruptHandler:
  3863  0271                     i1l1179:	
  3864                           ;incstack = 0
  3865                           ; Regs used in _IOCAF2_DefaultInterruptHandler: [status,2]
  3866                           
  3867                           
  3868                           ;main.c: 119:     j=0;
  3869  0271  01F6               	clrf	_j
  3870  0272  01F7               	clrf	_j+1
  3871  0273                     i1l134:
  3872  0273  0008               	return
  3873  0274                     __end_of_IOCAF2_DefaultInterruptHandler:
  3874                           
  3875                           	psect	text20
  3876  0205                     __ptext20:	
  3877 ;; *************** function _IOCAF1_ISR *****************
  3878 ;; Defined at:
  3879 ;;		line 27 in file "main.c"
  3880 ;; Parameters:    Size  Location     Type
  3881 ;;		None
  3882 ;; Auto vars:     Size  Location     Type
  3883 ;;		None
  3884 ;; Return value:  Size  Location     Type
  3885 ;;                  1    wreg      void 
  3886 ;; Registers used:
  3887 ;;		wreg, status,2, status,0, pclath, cstack
  3888 ;; Tracked objects:
  3889 ;;		On entry : 0/0
  3890 ;;		On exit  : 0/0
  3891 ;;		Unchanged: 0/0
  3892 ;; Data sizes:     COMMON   BANK0   BANK1   BANK2   BANK3   BANK4   BANK5   BANK6   BANK7   BANK8   BANK9  BANK10  BANK1
      +1  BANK12
  3893 ;;      Params:         0       0       0       0       0       0       0       0       0       0       0       0       
      +0       0
  3894 ;;      Locals:         0       0       0       0       0       0       0       0       0       0       0       0       
      +0       0
  3895 ;;      Temps:          0       0       0       0       0       0       0       0       0       0       0       0       
      +0       0
  3896 ;;      Totals:         0       0       0       0       0       0       0       0       0       0       0       0       
      +0       0
  3897 ;;Total ram usage:        0 bytes
  3898 ;; Hardware stack levels used: 1
  3899 ;; Hardware stack levels required when called: 1
  3900 ;; This function calls:
  3901 ;;		Absolute function
  3902 ;;		_IOCAF1_DefaultInterruptHandler
  3903 ;; This function is called by:
  3904 ;;		_PIN_MANAGER_IOC
  3905 ;; This function uses a non-reentrant model
  3906 ;;
  3907                           
  3908                           
  3909                           ;psect for function _IOCAF1_ISR
  3910  0205                     _IOCAF1_ISR:
  3911  0205                     i1l1203:	
  3912                           ;incstack = 0
  3913                           ; Regs used in _IOCAF1_ISR: [wreg+status,2+status,0+pclath+cstack]
  3914                           
  3915                           
  3916                           ;main.c: 29:     if(IOCAF1_InterruptHandler)
  3917  0205  0020               	movlb	0	; select bank0
  3918  0206  0826               	movf	_IOCAF1_InterruptHandler,w
  3919  0207  0427               	iorwf	_IOCAF1_InterruptHandler+1,w
  3920  0208  1903               	btfsc	3,2
  3921  0209  2A0B               	goto	u26_21
  3922  020A  2A0C               	goto	u26_20
  3923  020B                     u26_21:
  3924  020B  2A11               	goto	i1l1207
  3925  020C                     u26_20:
  3926  020C                     i1l1205:
  3927                           
  3928                           ;main.c: 30:     {;main.c: 31:         IOCAF1_InterruptHandler();
  3929  020C  0827               	movf	_IOCAF1_InterruptHandler+1,w
  3930  020D  008A               	movwf	10
  3931  020E  0826               	movf	_IOCAF1_InterruptHandler,w
  3932  020F  000A               	callw
  3933  0210  3182               	pagesel	$
  3934  0211                     i1l1207:
  3935                           
  3936                           ;main.c: 33:     IOCAFbits.IOCAF1 = 0;
  3937  0211  003E               	movlb	30	; select bank30
  3938  0212  10BF               	bcf	63,1	;volatile
  3939  0213                     i1l96:
  3940  0213  0008               	return
  3941  0214                     __end_of_IOCAF1_ISR:
  3942                           
  3943                           	psect	text21
  3944  0263                     __ptext21:	
  3945 ;; *************** function _IOCAF1_DefaultInterruptHandler *****************
  3946 ;; Defined at:
  3947 ;;		line 105 in file "main.c"
  3948 ;; Parameters:    Size  Location     Type
  3949 ;;		None
  3950 ;; Auto vars:     Size  Location     Type
  3951 ;;		None
  3952 ;; Return value:  Size  Location     Type
  3953 ;;                  1    wreg      void 
  3954 ;; Registers used:
  3955 ;;		wreg
  3956 ;; Tracked objects:
  3957 ;;		On entry : 0/0
  3958 ;;		On exit  : 0/0
  3959 ;;		Unchanged: 0/0
  3960 ;; Data sizes:     COMMON   BANK0   BANK1   BANK2   BANK3   BANK4   BANK5   BANK6   BANK7   BANK8   BANK9  BANK10  BANK1
      +1  BANK12
  3961 ;;      Params:         0       0       0       0       0       0       0       0       0       0       0       0       
      +0       0
  3962 ;;      Locals:         0       0       0       0       0       0       0       0       0       0       0       0       
      +0       0
  3963 ;;      Temps:          0       0       0       0       0       0       0       0       0       0       0       0       
      +0       0
  3964 ;;      Totals:         0       0       0       0       0       0       0       0       0       0       0       0       
      +0       0
  3965 ;;Total ram usage:        0 bytes
  3966 ;; Hardware stack levels used: 1
  3967 ;; This function calls:
  3968 ;;		Nothing
  3969 ;; This function is called by:
  3970 ;;		_main
  3971 ;;		_IOCAF1_ISR
  3972 ;; This function uses a non-reentrant model
  3973 ;;
  3974                           
  3975                           
  3976                           ;psect for function _IOCAF1_DefaultInterruptHandler
  3977  0263                     _IOCAF1_DefaultInterruptHandler:
  3978  0263                     i1l1177:	
  3979                           ;incstack = 0
  3980                           ; Regs used in _IOCAF1_DefaultInterruptHandler: [wreg]
  3981                           
  3982                           
  3983                           ;main.c: 107:     j=1;
  3984  0263  3001               	movlw	1
  3985  0264  00F6               	movwf	_j
  3986  0265  3000               	movlw	0
  3987  0266  00F7               	movwf	_j+1
  3988  0267                     i1l128:
  3989  0267  0008               	return
  3990  0268                     __end_of_IOCAF1_DefaultInterruptHandler:
  3991                           
  3992                           	psect	text22
  3993  0214                     __ptext22:	
  3994 ;; *************** function _IOCAF0_ISR *****************
  3995 ;; Defined at:
  3996 ;;		line 15 in file "main.c"
  3997 ;; Parameters:    Size  Location     Type
  3998 ;;		None
  3999 ;; Auto vars:     Size  Location     Type
  4000 ;;		None
  4001 ;; Return value:  Size  Location     Type
  4002 ;;                  1    wreg      void 
  4003 ;; Registers used:
  4004 ;;		wreg, status,2, status,0, pclath, cstack
  4005 ;; Tracked objects:
  4006 ;;		On entry : 0/0
  4007 ;;		On exit  : 0/0
  4008 ;;		Unchanged: 0/0
  4009 ;; Data sizes:     COMMON   BANK0   BANK1   BANK2   BANK3   BANK4   BANK5   BANK6   BANK7   BANK8   BANK9  BANK10  BANK1
      +1  BANK12
  4010 ;;      Params:         0       0       0       0       0       0       0       0       0       0       0       0       
      +0       0
  4011 ;;      Locals:         0       0       0       0       0       0       0       0       0       0       0       0       
      +0       0
  4012 ;;      Temps:          0       0       0       0       0       0       0       0       0       0       0       0       
      +0       0
  4013 ;;      Totals:         0       0       0       0       0       0       0       0       0       0       0       0       
      +0       0
  4014 ;;Total ram usage:        0 bytes
  4015 ;; Hardware stack levels used: 1
  4016 ;; Hardware stack levels required when called: 1
  4017 ;; This function calls:
  4018 ;;		Absolute function
  4019 ;;		_IOCAF0_DefaultInterruptHandler
  4020 ;; This function is called by:
  4021 ;;		_PIN_MANAGER_IOC
  4022 ;; This function uses a non-reentrant model
  4023 ;;
  4024                           
  4025                           
  4026                           ;psect for function _IOCAF0_ISR
  4027  0214                     _IOCAF0_ISR:
  4028  0214                     i1l1197:	
  4029                           ;incstack = 0
  4030                           ; Regs used in _IOCAF0_ISR: [wreg+status,2+status,0+pclath+cstack]
  4031                           
  4032                           
  4033                           ;main.c: 17:     if(IOCAF0_InterruptHandler)
  4034  0214  0020               	movlb	0	; select bank0
  4035  0215  0828               	movf	_IOCAF0_InterruptHandler,w
  4036  0216  0429               	iorwf	_IOCAF0_InterruptHandler+1,w
  4037  0217  1903               	btfsc	3,2
  4038  0218  2A1A               	goto	u25_21
  4039  0219  2A1B               	goto	u25_20
  4040  021A                     u25_21:
  4041  021A  2A20               	goto	i1l1201
  4042  021B                     u25_20:
  4043  021B                     i1l1199:
  4044                           
  4045                           ;main.c: 18:     {;main.c: 19:         IOCAF0_InterruptHandler();
  4046  021B  0829               	movf	_IOCAF0_InterruptHandler+1,w
  4047  021C  008A               	movwf	10
  4048  021D  0828               	movf	_IOCAF0_InterruptHandler,w
  4049  021E  000A               	callw
  4050  021F  3182               	pagesel	$
  4051  0220                     i1l1201:
  4052                           
  4053                           ;main.c: 21:     IOCAFbits.IOCAF0 = 0;
  4054  0220  003E               	movlb	30	; select bank30
  4055  0221  103F               	bcf	63,0	;volatile
  4056  0222                     i1l92:
  4057  0222  0008               	return
  4058  0223                     __end_of_IOCAF0_ISR:
  4059                           
  4060                           	psect	text23
  4061  0268                     __ptext23:	
  4062 ;; *************** function _IOCAF0_DefaultInterruptHandler *****************
  4063 ;; Defined at:
  4064 ;;		line 96 in file "main.c"
  4065 ;; Parameters:    Size  Location     Type
  4066 ;;		None
  4067 ;; Auto vars:     Size  Location     Type
  4068 ;;		None
  4069 ;; Return value:  Size  Location     Type
  4070 ;;                  1    wreg      void 
  4071 ;; Registers used:
  4072 ;;		wreg
  4073 ;; Tracked objects:
  4074 ;;		On entry : 0/0
  4075 ;;		On exit  : 0/0
  4076 ;;		Unchanged: 0/0
  4077 ;; Data sizes:     COMMON   BANK0   BANK1   BANK2   BANK3   BANK4   BANK5   BANK6   BANK7   BANK8   BANK9  BANK10  BANK1
      +1  BANK12
  4078 ;;      Params:         0       0       0       0       0       0       0       0       0       0       0       0       
      +0       0
  4079 ;;      Locals:         0       0       0       0       0       0       0       0       0       0       0       0       
      +0       0
  4080 ;;      Temps:          0       0       0       0       0       0       0       0       0       0       0       0       
      +0       0
  4081 ;;      Totals:         0       0       0       0       0       0       0       0       0       0       0       0       
      +0       0
  4082 ;;Total ram usage:        0 bytes
  4083 ;; Hardware stack levels used: 1
  4084 ;; This function calls:
  4085 ;;		Nothing
  4086 ;; This function is called by:
  4087 ;;		_main
  4088 ;;		_IOCAF0_ISR
  4089 ;; This function uses a non-reentrant model
  4090 ;;
  4091                           
  4092                           
  4093                           ;psect for function _IOCAF0_DefaultInterruptHandler
  4094  0268                     _IOCAF0_DefaultInterruptHandler:
  4095  0268                     i1l1175:	
  4096                           ;incstack = 0
  4097                           ; Regs used in _IOCAF0_DefaultInterruptHandler: [wreg]
  4098                           
  4099                           
  4100                           ;main.c: 97:     j=2;
  4101  0268  3002               	movlw	2
  4102  0269  00F6               	movwf	_j
  4103  026A  3000               	movlw	0
  4104  026B  00F7               	movwf	_j+1
  4105  026C                     i1l122:
  4106  026C  0008               	return
  4107  026D                     __end_of_IOCAF0_DefaultInterruptHandler:
  4108  007E                     btemp	set	126	;btemp
  4109  007E                     int$flags	set	126
  4110  007E                     wtemp0	set	126
  4111                           
  4112                           	psect	config
  4113                           
  4114                           ;Config register CONFIG1 @ 0x8007
  4115                           ;	External Oscillator mode selection bits
  4116                           ;	FEXTOSC = OFF, Oscillator not enabled
  4117                           ;	Power-up default value for COSC bits
  4118                           ;	RSTOSC = LFINT, LFINTOSC
  4119                           ;	Clock Out Enable bit
  4120                           ;	CLKOUTEN = OFF, CLKOUT function is disabled; i/o or oscillator function on OSC2
  4121                           ;	Clock Switch Enable bit
  4122                           ;	CSWEN = ON, Writing to NOSC and NDIV is allowed
  4123                           ;	Fail-Safe Clock Monitor Enable bit
  4124                           ;	FCMEN = ON, FSCM timer enabled
  4125  8007                     	org	32775
  4126  8007  3FDC               	dw	16348
  4127                           
  4128                           ;Config register CONFIG2 @ 0x8008
  4129                           ;	Master Clear Enable bit
  4130                           ;	MCLRE = ON, MCLR pin is Master Clear function
  4131                           ;	Power-up Timer Enable bit
  4132                           ;	PWRTE = OFF, PWRT disabled
  4133                           ;	Low-Power BOR enable bit
  4134                           ;	LPBOREN = OFF, ULPBOR disabled
  4135                           ;	Brown-out reset enable bits
  4136                           ;	BOREN = ON, Brown-out Reset Enabled, SBOREN bit is ignored
  4137                           ;	Brown-out Reset Voltage Selection
  4138                           ;	BORV = LO, Brown-out Reset Voltage (VBOR) set to 1.9V on LF, and 2.45V on F Devices
  4139                           ;	Zero-cross detect disable
  4140                           ;	ZCD = OFF, Zero-cross detect circuit is disabled at POR.
  4141                           ;	Peripheral Pin Select one-way control
  4142                           ;	PPS1WAY = ON, The PPSLOCK bit can be cleared and set only once in software
  4143                           ;	Stack Overflow/Underflow Reset Enable bit
  4144                           ;	STVREN = ON, Stack Overflow or Underflow will cause a reset
  4145                           ;	Background Debugger
  4146                           ;	DEBUG = OFF, Background Debugger disabled
  4147  8008                     	org	32776
  4148  8008  3FFF               	dw	16383
  4149                           
  4150                           ;Config register CONFIG3 @ 0x8009
  4151                           ;	WDT Period Select bits
  4152                           ;	WDTCPS = WDTCPS_31, Divider ratio 1:65536; software control of WDTPS
  4153                           ;	WDT operating mode
  4154                           ;	WDTE = OFF, WDT Disabled, SWDTEN is ignored
  4155                           ;	WDT Window Select bits
  4156                           ;	WDTCWS = WDTCWS_7, window always open (100%); software control; keyed access not requi
      +                          red
  4157                           ;	WDT input clock selector
  4158                           ;	WDTCCS = SC, Software Control
  4159  8009                     	org	32777
  4160  8009  3F9F               	dw	16287
  4161                           
  4162                           ;Config register CONFIG4 @ 0x800A
  4163                           ;	UserNVM self-write protection bits
  4164                           ;	WRT = OFF, Write protection off
  4165                           ;	Scanner Enable bit
  4166                           ;	SCANE = available, Scanner module is available for use
  4167                           ;	Low Voltage Programming Enable bit
  4168                           ;	LVP = ON, Low Voltage programming enabled. MCLR/Vpp pin function is MCLR.
  4169  800A                     	org	32778
  4170  800A  3FFF               	dw	16383
  4171                           
  4172                           ;Config register CONFIG5 @ 0x800B
  4173                           ;	UserNVM Program memory code protection bit
  4174                           ;	CP = OFF, Program Memory code protection disabled
  4175                           ;	DataNVM code protection bit
  4176                           ;	CPD = OFF, Data EEPROM code protection disabled
  4177  800B                     	org	32779
  4178  800B  3FFF               	dw	16383

Data Sizes:
    Strings     0
    Constant    0
    Data        12
    BSS         2
    Persistent  44
    Stack       0

Auto Spaces:
    Space          Size  Autos    Used
    COMMON           14      3      13
    BANK0            80      0      16
    BANK1            80      0       0
    BANK2            80      0       0
    BANK3            80      0       0
    BANK4            80      0       0
    BANK5            80      0       0
    BANK6            80      0       0
    BANK7            80      0       0
    BANK8            80      0       0
    BANK9            80      0       0
    BANK10           80      0       0
    BANK11           80      0       0
    BANK12           48      0       0

Pointer List with Targets:

    TMR0_SetInterruptHandler@InterruptHandler	PTR FTN()void  size(2) Largest target is 1
		 -> TMR0_DefaultInterruptHandler(), 

    TMR0_InterruptHandler	PTR FTN()void  size(2) Largest target is 1
		 -> TMR0_DefaultInterruptHandler(), Absolute function(), 

    IOCCF3_SetInterruptHandler@InterruptHandler	PTR FTN()void  size(2) Largest target is 1
		 -> IOCCF3_DefaultInterruptHandler(), 

    IOCCF2_SetInterruptHandler@InterruptHandler	PTR FTN()void  size(2) Largest target is 1
		 -> IOCCF2_DefaultInterruptHandler(), 

    IOCAF2_SetInterruptHandler@InterruptHandler	PTR FTN()void  size(2) Largest target is 1
		 -> IOCAF2_DefaultInterruptHandler(), 

    IOCAF1_SetInterruptHandler@InterruptHandler	PTR FTN()void  size(2) Largest target is 1
		 -> IOCAF1_DefaultInterruptHandler(), 

    IOCAF0_SetInterruptHandler@InterruptHandler	PTR FTN()void  size(2) Largest target is 1
		 -> IOCAF0_DefaultInterruptHandler(), 

    IOCCF3_InterruptHandler	PTR FTN()void  size(2) Largest target is 1
		 -> IOCCF3_DefaultInterruptHandler(), Absolute function(), 

    IOCCF2_InterruptHandler	PTR FTN()void  size(2) Largest target is 1
		 -> IOCCF2_DefaultInterruptHandler(), Absolute function(), 

    IOCAF2_InterruptHandler	PTR FTN()void  size(2) Largest target is 1
		 -> IOCAF2_DefaultInterruptHandler(), Absolute function(), 

    IOCAF1_InterruptHandler	PTR FTN()void  size(2) Largest target is 1
		 -> IOCAF1_DefaultInterruptHandler(), Absolute function(), 

    IOCAF0_InterruptHandler	PTR FTN()void  size(2) Largest target is 1
		 -> IOCAF0_DefaultInterruptHandler(), Absolute function(), 


Critical Paths under _main in COMMON

    _main->_IOCAF0_SetInterruptHandler
    _main->_IOCAF1_SetInterruptHandler
    _main->_IOCAF2_SetInterruptHandler
    _main->_IOCCF2_SetInterruptHandler
    _main->_IOCCF3_SetInterruptHandler
    _main->_TMR0_SetInterruptHandler
    _main->_secuencia1
    _main->_secuencia2
    _main->_secuencia3

Critical Paths under _interrupcion in COMMON

    _IOCCF3_ISR->_IOCCF3_DefaultInterruptHandler
    _IOCCF2_ISR->_IOCCF2_DefaultInterruptHandler

Critical Paths under _main in BANK0

    None.

Critical Paths under _interrupcion in BANK0

    None.

Critical Paths under _main in BANK1

    None.

Critical Paths under _interrupcion in BANK1

    None.

Critical Paths under _main in BANK2

    None.

Critical Paths under _interrupcion in BANK2

    None.

Critical Paths under _main in BANK3

    None.

Critical Paths under _interrupcion in BANK3

    None.

Critical Paths under _main in BANK4

    None.

Critical Paths under _interrupcion in BANK4

    None.

Critical Paths under _main in BANK5

    None.

Critical Paths under _interrupcion in BANK5

    None.

Critical Paths under _main in BANK6

    None.

Critical Paths under _interrupcion in BANK6

    None.

Critical Paths under _main in BANK7

    None.

Critical Paths under _interrupcion in BANK7

    None.

Critical Paths under _main in BANK8

    None.

Critical Paths under _interrupcion in BANK8

    None.

Critical Paths under _main in BANK9

    None.

Critical Paths under _interrupcion in BANK9

    None.

Critical Paths under _main in BANK10

    None.

Critical Paths under _interrupcion in BANK10

    None.

Critical Paths under _main in BANK11

    None.

Critical Paths under _interrupcion in BANK11

    None.

Critical Paths under _main in BANK12

    None.

Critical Paths under _interrupcion in BANK12

    None.

Call Graph Tables:

 ---------------------------------------------------------------------------------
 (Depth) Function   	        Calls       Base Space   Used Autos Params    Refs
 ---------------------------------------------------------------------------------
 (0) _main                                                 0     0      0     882
         _IOCAF0_SetInterruptHandler
         _IOCAF1_SetInterruptHandler
         _IOCAF2_SetInterruptHandler
         _IOCCF2_SetInterruptHandler
         _IOCCF3_SetInterruptHandler
           _TMR0_SetInterruptHandler
                         _secuencia1
                         _secuencia2
                         _secuencia3
 ---------------------------------------------------------------------------------
 (1) _secuencia3                                           2     0      2      98
                                              1 COMMON     2     0      2
 ---------------------------------------------------------------------------------
 (1) _secuencia2                                           2     0      2      98
                                              1 COMMON     2     0      2
 ---------------------------------------------------------------------------------
 (1) _secuencia1                                           2     0      2      98
                                              1 COMMON     2     0      2
 ---------------------------------------------------------------------------------
 (1) _TMR0_SetInterruptHandler                             2     0      2      98
                                              1 COMMON     2     0      2
 ---------------------------------------------------------------------------------
 (1) _IOCCF3_SetInterruptHandler                           2     0      2      98
                                              1 COMMON     2     0      2
 ---------------------------------------------------------------------------------
 (1) _IOCCF2_SetInterruptHandler                           2     0      2      98
                                              1 COMMON     2     0      2
 ---------------------------------------------------------------------------------
 (1) _IOCAF2_SetInterruptHandler                           2     0      2      98
                                              1 COMMON     2     0      2
 ---------------------------------------------------------------------------------
 (1) _IOCAF1_SetInterruptHandler                           2     0      2      98
                                              1 COMMON     2     0      2
 ---------------------------------------------------------------------------------
 (1) _IOCAF0_SetInterruptHandler                           2     0      2      98
                                              1 COMMON     2     0      2
 ---------------------------------------------------------------------------------
 Estimated maximum stack depth 1
 ---------------------------------------------------------------------------------
 (Depth) Function   	        Calls       Base Space   Used Autos Params    Refs
 ---------------------------------------------------------------------------------
 (2) _interrupcion                                         0     0      0       0
                    _PIN_MANAGER_IOC
                           _TMR0_ISR
 ---------------------------------------------------------------------------------
 (3) _TMR0_ISR                                             0     0      0       0
                   Absolute function *
       _TMR0_DefaultInterruptHandler *
 ---------------------------------------------------------------------------------
 (4) _TMR0_DefaultInterruptHandler                         0     0      0       0
 ---------------------------------------------------------------------------------
 (3) _PIN_MANAGER_IOC                                      0     0      0       0
                         _IOCAF0_ISR
                         _IOCAF1_ISR
                         _IOCAF2_ISR
                         _IOCCF2_ISR
                         _IOCCF3_ISR
 ---------------------------------------------------------------------------------
 (4) _IOCCF3_ISR                                           0     0      0       0
                   Absolute function *
     _IOCCF3_DefaultInterruptHandler *
 ---------------------------------------------------------------------------------
 (5) _IOCCF3_DefaultInterruptHandler                       1     1      0       0
                                              0 COMMON     1     1      0
 ---------------------------------------------------------------------------------
 (4) _IOCCF2_ISR                                           0     0      0       0
                   Absolute function *
     _IOCCF2_DefaultInterruptHandler *
 ---------------------------------------------------------------------------------
 (5) _IOCCF2_DefaultInterruptHandler                       1     1      0       0
                                              0 COMMON     1     1      0
 ---------------------------------------------------------------------------------
 (4) _IOCAF2_ISR                                           0     0      0       0
                   Absolute function *
     _IOCAF2_DefaultInterruptHandler *
 ---------------------------------------------------------------------------------
 (5) _IOCAF2_DefaultInterruptHandler                       0     0      0       0
 ---------------------------------------------------------------------------------
 (4) _IOCAF1_ISR                                           0     0      0       0
                   Absolute function *
     _IOCAF1_DefaultInterruptHandler *
 ---------------------------------------------------------------------------------
 (5) _IOCAF1_DefaultInterruptHandler                       0     0      0       0
 ---------------------------------------------------------------------------------
 (4) _IOCAF0_ISR                                           0     0      0       0
                   Absolute function *
     _IOCAF0_DefaultInterruptHandler *
 ---------------------------------------------------------------------------------
 (5) _IOCAF0_DefaultInterruptHandler                       0     0      0       0
 ---------------------------------------------------------------------------------
 (4) Absolute function(Fake)                               0     0      0       0
 ---------------------------------------------------------------------------------
 Estimated maximum stack depth 5
 ---------------------------------------------------------------------------------

 Call Graph Graphs:

 _main (ROOT)
   _IOCAF0_SetInterruptHandler
   _IOCAF1_SetInterruptHandler
   _IOCAF2_SetInterruptHandler
   _IOCCF2_SetInterruptHandler
   _IOCCF3_SetInterruptHandler
   _TMR0_SetInterruptHandler
   _secuencia1
   _secuencia2
   _secuencia3

 _interrupcion (ROOT)
   _PIN_MANAGER_IOC
     _IOCAF0_ISR
       Absolute function(Fake) *
       _IOCAF0_DefaultInterruptHandler *
     _IOCAF1_ISR
       Absolute function(Fake) *
       _IOCAF1_DefaultInterruptHandler *
     _IOCAF2_ISR
       Absolute function(Fake) *
       _IOCAF2_DefaultInterruptHandler *
     _IOCCF2_ISR
       Absolute function(Fake) *
       _IOCCF2_DefaultInterruptHandler *
     _IOCCF3_ISR
       Absolute function(Fake) *
       _IOCCF3_DefaultInterruptHandler *
   _TMR0_ISR
     Absolute function(Fake) *
     _TMR0_DefaultInterruptHandler *

 Address spaces:
Name               Size   Autos  Total    Cost      Usage
BIGRAM             3F0      0       0       0        0.0%
EEDATA             100      0       0       0        0.0%
NULL                 0      0       0       0        0.0%
CODE                 0      0       0       0        0.0%
BITCOMMON            E      0       0       1        0.0%
BITSFR0              0      0       0       1        0.0%
SFR0                 0      0       0       1        0.0%
COMMON               E      3       D       2       92.9%
BITSFR1              0      0       0       2        0.0%
SFR1                 0      0       0       2        0.0%
BITSFR2              0      0       0       3        0.0%
SFR2                 0      0       0       3        0.0%
STACK                0      0       0       3        0.0%
BITBANK0            50      0       0       4        0.0%
BITSFR3              0      0       0       4        0.0%
SFR3                 0      0       0       4        0.0%
BANK0               50      0      10       5       20.0%
BITSFR4              0      0       0       5        0.0%
SFR4                 0      0       0       5        0.0%
BITBANK1            50      0       0       6        0.0%
BITSFR5              0      0       0       6        0.0%
SFR5                 0      0       0       6        0.0%
BANK1               50      0       0       7        0.0%
BITSFR6              0      0       0       7        0.0%
SFR6                 0      0       0       7        0.0%
BITBANK2            50      0       0       8        0.0%
BITSFR7              0      0       0       8        0.0%
SFR7                 0      0       0       8        0.0%
BANK2               50      0       0       9        0.0%
BITSFR8              0      0       0       9        0.0%
SFR8                 0      0       0       9        0.0%
BITBANK3            50      0       0      10        0.0%
BITSFR9              0      0       0      10        0.0%
SFR9                 0      0       0      10        0.0%
BANK3               50      0       0      11        0.0%
BITSFR10             0      0       0      11        0.0%
SFR10                0      0       0      11        0.0%
BITBANK4            50      0       0      12        0.0%
BITSFR11             0      0       0      12        0.0%
SFR11                0      0       0      12        0.0%
BANK4               50      0       0      13        0.0%
BITSFR12             0      0       0      13        0.0%
SFR12                0      0       0      13        0.0%
BITBANK5            50      0       0      14        0.0%
BITSFR13             0      0       0      14        0.0%
SFR13                0      0       0      14        0.0%
BANK5               50      0       0      15        0.0%
BITSFR14             0      0       0      15        0.0%
SFR14                0      0       0      15        0.0%
BITBANK6            50      0       0      16        0.0%
BITSFR15             0      0       0      16        0.0%
SFR15                0      0       0      16        0.0%
BANK6               50      0       0      17        0.0%
BITSFR16             0      0       0      17        0.0%
SFR16                0      0       0      17        0.0%
BITBANK7            50      0       0      18        0.0%
BITSFR17             0      0       0      18        0.0%
SFR17                0      0       0      18        0.0%
BANK7               50      0       0      19        0.0%
BITSFR18             0      0       0      19        0.0%
SFR18                0      0       0      19        0.0%
BITSFR19             0      0       0      20        0.0%
SFR19                0      0       0      20        0.0%
ABS                  0      0      1D      20        0.0%
BITBANK8            50      0       0      21        0.0%
BITSFR20             0      0       0      21        0.0%
SFR20                0      0       0      21        0.0%
BANK8               50      0       0      22        0.0%
BITSFR21             0      0       0      22        0.0%
SFR21                0      0       0      22        0.0%
BITBANK9            50      0       0      23        0.0%
BITSFR22             0      0       0      23        0.0%
SFR22                0      0       0      23        0.0%
BANK9               50      0       0      24        0.0%
BITSFR23             0      0       0      24        0.0%
SFR23                0      0       0      24        0.0%
BITBANK10           50      0       0      25        0.0%
BITSFR24             0      0       0      25        0.0%
SFR24                0      0       0      25        0.0%
BANK10              50      0       0      26        0.0%
BITSFR25             0      0       0      26        0.0%
SFR25                0      0       0      26        0.0%
BITBANK11           50      0       0      27        0.0%
BITSFR26             0      0       0      27        0.0%
SFR26                0      0       0      27        0.0%
BANK11              50      0       0      28        0.0%
BITSFR27             0      0       0      28        0.0%
SFR27                0      0       0      28        0.0%
BITBANK12           30      0       0      29        0.0%
BITSFR28             0      0       0      29        0.0%
SFR28                0      0       0      29        0.0%
BANK12              30      0       0      30        0.0%
BITSFR29             0      0       0      30        0.0%
SFR29                0      0       0      30        0.0%
BITSFR30             0      0       0      31        0.0%
SFR30                0      0       0      31        0.0%
DATA                 0      0      1D      31        0.0%
BITSFR31             0      0       0      32        0.0%
SFR31                0      0       0      32        0.0%


Microchip Technology PIC Macro Assembler V2.32 build 20210201212658 
Symbol Table                                                                                   Thu Dec 02 20:56:34 2021

                                         _h 002E                                           _i 007B  
                                         _j 0076                                           _k 0074  
                                         _l 0072                                           _x 0070  
                                        _dh 002C                                         l131 0256  
                                       l125 025C                                         l205 0125  
                                       l119 0262                                         l215 00F9  
                                       l137 0250                                         l145 024A  
                                       l157 0244                                         l195 0151  
        __end_of_IOCAF2_SetInterruptHandler 0257                  _IOCAF2_SetInterruptHandler 0251  
          ??_IOCCF2_DefaultInterruptHandler 0078             ?_IOCCF2_DefaultInterruptHandler 0078  
        __end_of_IOCCF3_SetInterruptHandler 024B                  _IOCCF3_SetInterruptHandler 0245  
                                      l1301 010B                                        l1311 00CE  
                                      l1305 010F                                        l1321 00DF  
                                      l1313 00CF                                        l1401 0075  
                                      l1315 00D3                                        l1411 008C  
                                      l1403 0076                                        l1253 025D  
                                      l1261 0245                                        l1317 00D7  
                                      l1325 00E3                                        l1421 00AD  
                                      l1413 0093                                        l1405 0077  
                                      l1341 0040                                        l1255 0257  
                                      l1271 0126                                        l1319 00DB  
                                      l1423 00B5                                        l1415 009A  
                                      l1407 007E                                        l1351 004C  
                                      l1343 0043                                        l1257 0251  
                                      l1281 0137                                        l1273 0127  
                                      l1417 00A1                                        l1409 0085  
                                      l1361 0056                                        l1353 004D  
                                      l1345 0044                                        l1259 024B  
                                      l1531 0140                                        l1275 012B  
                                      l1291 00FA                                        l1419 00A5  
                                      l1427 00BC                                        l1371 005F  
                                      l1363 005B                                        l1355 004F  
                                      l1347 0045                                        l1269 023F  
                                      l1277 012F                                        l1285 013B  
                                      l1293 00FB                                        l1525 00C1  
                                      l1381 0064                                        l1373 0060  
                                      l1365 005C                                        l1357 0051  
                                      l1349 0046                                        l1279 0133  
                                      l1295 00FF                                        l1527 00E8  
                                      l1391 0069                                        l1383 0065  
                                      l1375 0061                                        l1367 005D  
                                      l1359 0054                                        l1529 0114  
                                      l1297 0103                                        l1393 006A  
                                      l1385 0066                                        l1377 0062  
                                      l1369 005E                                        l1299 0107  
                                      l1395 0071                                        l1387 0067  
                                      l1379 0063                                        l1397 0072  
                                      l1389 0068                                        l1399 0074  
                                      _LATB 0017                                        i1l92 0222  
                                      i1l96 0213                                        _main 0040  
                                      fsr0h 0005                                        fsr1h 0007  
                                      fsr0l 0004                                        fsr1l 0006  
                                      btemp 007E                                        start 0020  
            ??_TMR0_DefaultInterruptHandler 0078                         __size_of_IOCAF0_ISR 000F  
                       __size_of_IOCAF1_ISR 000F                         __size_of_IOCAF2_ISR 000F  
                       __size_of_IOCCF2_ISR 000F                         __size_of_IOCCF3_ISR 000F  
                                     ?_main 0078                                       i1l100 0204  
                                     i1l104 01F5                                       i1l122 026C  
                                     i1l108 01E6                                       i1l116 017A  
                                     i1l134 0273                                       i1l142 01C8  
                                     i1l150 01A1                                       i1l128 0267  
                                     i1l161 0230                                       i1l154 01D7  
                                     i1l170 001E                                       i1l166 0013  
                                     _OSCEN 0891                                       u21_20 01B3  
                                     u21_21 01B2                                       u21_25 01AF  
                                     u22_20 01C0                                       u30_20 022E  
                                     u22_21 01BF                                       u30_21 022D  
                                     u22_25 01BC                                       u23_20 018C  
                                     u31_20 0157                                       u23_21 018B  
                                     u31_21 0156                                       u23_25 0188  
                                     u24_20 0199                                       u32_20 015F  
                                     u40_20 001B                                       u24_21 0198  
                                     u32_21 015E                                       u40_21 001A  
                                     u24_25 0195                                       u25_20 021B  
                                     u33_20 0167                                       _TMR0H 001D  
                                     u25_21 021A                                       u33_21 0166  
                                     _TMR0L 001C                                       u26_20 020C  
                                     u34_20 016F                                       u26_21 020B  
                                     u34_21 016E                                       u27_20 01FD  
                                     u35_20 0177                                       u27_21 01FC  
                                     u35_21 0176                                       u28_20 01EE  
                                     u36_20 01D2                                       u28_21 01ED  
                                     u36_21 01D1                                       u29_20 01DF  
                                     u37_20 000B                                       u29_21 01DE  
                                     u37_21 000A                                       u38_20 000F  
                                     u38_21 000E                                       u39_20 0017  
                                     u39_21 0016                                       _TRISA 0011  
                                     _TRISB 0012                                       _TRISC 0013  
                                     _TRISD 0014                                       _TRISE 0015  
         __size_of_TMR0_SetInterruptHandler 0006                   ?_TMR0_SetInterruptHandler 0079  
                          __end_of_TMR0_ISR 01D8                     __end_of_PIN_MANAGER_IOC 017B  
                                     pclath 000A                                       status 0003  
                                     wtemp0 007E                             __initialization 0022  
                              __end_of_main 00CE                                      ??_main 007B  
                   _IOCCF2_InterruptHandler 0022                ??_IOCAF0_SetInterruptHandler 007B  
                                    _ANSELA 0F38                                      _ANSELB 0F43  
                                    _ANSELC 0F4E                                      _ANSELD 0F59  
                                    _ANSELE 0F64                                      _T0CON0 001E  
                                    _T0CON1 001F                                      i1l1201 0220  
                                    i1l1203 0205                                      i1l1211 01FD  
                                    i1l1205 020C                                      i1l1213 0202  
                                    i1l1221 01D8                                      i1l1207 0211  
                                    i1l1215 01E7                                      i1l1223 01DF  
                                    i1l1231 022E                                      i1l1209 01F6  
                                    i1l1217 01EE                                      i1l1225 01E4  
                                    i1l1241 0162                                      i1l1233 0152  
                                    i1l1219 01F3                                      i1l1251 0177  
                                    i1l1243 0167                                      i1l1235 0157  
                                    i1l1227 0223                                      i1l1331 0006  
                                    i1l1181 01A2                                      i1l1245 016A  
                                    i1l1237 015A                                      i1l1229 0227  
                                    i1l1333 000B                                      i1l1175 0268  
                                    i1l1183 01B3                                      i1l1191 018C  
                                    i1l1247 016F                                      i1l1239 015F  
                                    i1l1263 01C9                                      i1l1335 000F  
                                    i1l1177 0263                                      i1l1185 01C0  
                                    i1l1193 0199                                      i1l1249 0172  
                                    i1l1265 01CB                                      i1l1337 0017  
                                    i1l1179 0271                                      i1l1187 01C4  
                                    i1l1195 019D                                      i1l1267 01D2  
                                    i1l1339 001B                                      i1l1197 0214  
                                    i1l1189 017B                                      i1l1199 021B  
                                    _OSCFRQ 0893         __size_of_IOCAF0_SetInterruptHandler 0006  
                              __pdataCOMMON 0070    TMR0_SetInterruptHandler@InterruptHandler 0079  
IOCCF3_SetInterruptHandler@InterruptHandler 0079  IOCCF2_SetInterruptHandler@InterruptHandler 0079  
IOCAF2_SetInterruptHandler@InterruptHandler 0079  IOCAF1_SetInterruptHandler@InterruptHandler 0079  
IOCAF0_SetInterruptHandler@InterruptHandler 0079                            ?_PIN_MANAGER_IOC 0078  
                              ??_IOCAF0_ISR 0078                                ??_IOCAF1_ISR 0078  
                              ??_IOCAF2_ISR 0078                                ??_IOCCF2_ISR 0079  
                              ??_IOCCF3_ISR 0079                     __end_of__initialization 003C  
    __end_of_IOCAF1_DefaultInterruptHandler 0268     __size_of_IOCAF1_DefaultInterruptHandler 0005  
            _IOCAF1_DefaultInterruptHandler 0263                              __pcstackCOMMON 0078  
                             ?_interrupcion 0078                                __pidataBANK0 026D  
                                 ?_TMR0_ISR 0078                          __end_of_IOCAF0_ISR 0223  
                        __end_of_IOCAF1_ISR 0214                          __end_of_IOCAF2_ISR 0205  
                        __end_of_IOCCF2_ISR 01F6                          __end_of_IOCCF3_ISR 01E7  
               ?_IOCAF2_SetInterruptHandler 0079            ??_IOCAF2_DefaultInterruptHandler 0078  
           ?_IOCAF2_DefaultInterruptHandler 0078                 ?_IOCCF3_SetInterruptHandler 0079  
    __end_of_IOCCF2_DefaultInterruptHandler 01C9     __size_of_IOCCF2_DefaultInterruptHandler 0027  
            _IOCCF2_DefaultInterruptHandler 01A2                     _IOCCF3_InterruptHandler 0020  
                            ??_interrupcion 0079                                  __pmaintext 0040  
          __end_of_TMR0_SetInterruptHandler 0245                                  ??_TMR0_ISR 0078  
                                __pintentry 0004          __end_of_IOCAF0_SetInterruptHandler 0263  
                _IOCAF0_SetInterruptHandler 025D                                     _OSCCON1 088D  
                                   _OSCCON3 088F                                 secuencia1@p 0079  
                               secuencia2@p 0079                                 secuencia3@p 0079  
                                   _OSCTUNE 0892            ??_IOCCF3_DefaultInterruptHandler 0078  
           ?_IOCCF3_DefaultInterruptHandler 0078                                     __ptext1 00CE  
                                   __ptext2 00FA                                     __ptext3 0126  
                                   __ptext4 023F                                     __ptext5 0245  
                                   __ptext6 024B                                     __ptext7 0251  
                                   __ptext8 0257                                     __ptext9 025D  
                                 _IOCAFbits 0F3F                                   _IOCCFbits 0F55  
                                 _IOCANbits 0F3E                                   _IOCAPbits 0F3D  
                                 _IOCCNbits 0F54                                   _IOCCPbits 0F53  
                      end_of_initialization 003C                                  _secuencia1 0126  
                                _secuencia2 00FA                                  _secuencia3 00CE  
                                   init_ram 0239                                     initloop 023A  
                  _TMR0_SetInterruptHandler 023F                     _IOCAF0_InterruptHandler 0028  
              ??_IOCAF1_SetInterruptHandler 007B                        __end_of_interrupcion 0020  
              ??_IOCCF2_SetInterruptHandler 007B                               __pidataCOMMON 0231  
       __size_of_IOCAF1_SetInterruptHandler 0006                           __size_of_TMR0_ISR 000F  
       __size_of_IOCCF2_SetInterruptHandler 0006                         start_initialization 0022  
                               ?_secuencia1 0079                                 ?_secuencia2 0079  
                               ?_secuencia3 0079                    __size_of_PIN_MANAGER_IOC 0029  
    __end_of_IOCAF2_DefaultInterruptHandler 0274     __size_of_IOCAF2_DefaultInterruptHandler 0003  
            _IOCAF2_DefaultInterruptHandler 0271                                 __pdataBANK0 002C  
          ??_IOCAF0_DefaultInterruptHandler 0078             ?_IOCAF0_DefaultInterruptHandler 0078  
                               __pbssCOMMON 007B                                   ___latbits 0002  
               ?_IOCAF0_SetInterruptHandler 0079                       _TMR0_InterruptHandler 002A  
                                 __pnvBANK0 0020                     _IOCAF1_InterruptHandler 0026  
    __end_of_IOCCF3_DefaultInterruptHandler 01A2     __size_of_IOCCF3_DefaultInterruptHandler 0027  
            _IOCCF3_DefaultInterruptHandler 017B                         __size_of_secuencia1 002C  
                       __size_of_secuencia2 002C                         __size_of_secuencia3 002C  
                     __size_of_interrupcion 001C          __end_of_IOCAF1_SetInterruptHandler 025D  
                _IOCAF1_SetInterruptHandler 0257          __end_of_IOCCF2_SetInterruptHandler 0251  
                _IOCCF2_SetInterruptHandler 024B                                    _PIE0bits 0716  
                ??_TMR0_SetInterruptHandler 007B                                    _PIR0bits 070C  
                              _interrupcion 0004                                    _TMR0_ISR 01C9  
                         ??_PIN_MANAGER_IOC 0079                     _IOCAF2_InterruptHandler 0024  
              ??_IOCAF2_SetInterruptHandler 007B                                    __ptext11 01C9  
                                  __ptext20 0205                                    __ptext12 0223  
                                  __ptext21 0263                                    __ptext13 0152  
                                  __ptext22 0214                                    __ptext14 01D8  
                                  __ptext23 0268                                    __ptext15 017B  
                                  __ptext16 01E7                                    __ptext17 01A2  
                                  __ptext18 01F6                                    __ptext19 0271  
              ??_IOCCF3_SetInterruptHandler 007B                                  _IOCAF0_ISR 0214  
                                _IOCAF1_ISR 0205                                  _IOCAF2_ISR 01F6  
                                _IOCCF2_ISR 01E7                                  _IOCCF3_ISR 01D8  
                              ??_secuencia1 007B                                ??_secuencia2 007B  
                              ??_secuencia3 007B                               __size_of_main 008E  
      __end_of_TMR0_DefaultInterruptHandler 0231       __size_of_TMR0_DefaultInterruptHandler 000E  
              _TMR0_DefaultInterruptHandler 0223                                    int$flags 007E  
       __size_of_IOCAF2_SetInterruptHandler 0006         __size_of_IOCCF3_SetInterruptHandler 0006  
                        __end_of_secuencia1 0152                          __end_of_secuencia2 0126  
                        __end_of_secuencia3 00FA                                  _INTCONbits 000B  
                                  intlevel1 0000      __end_of_IOCAF0_DefaultInterruptHandler 026D  
   __size_of_IOCAF0_DefaultInterruptHandler 0005              _IOCAF0_DefaultInterruptHandler 0268  
             ?_TMR0_DefaultInterruptHandler 0078            ??_IOCAF1_DefaultInterruptHandler 0078  
           ?_IOCAF1_DefaultInterruptHandler 0078                 ?_IOCAF1_SetInterruptHandler 0079  
               ?_IOCCF2_SetInterruptHandler 0079                                 ?_IOCAF0_ISR 0078  
                               ?_IOCAF1_ISR 0078                                 ?_IOCAF2_ISR 0078  
                               ?_IOCCF2_ISR 0078                                 ?_IOCCF3_ISR 0078  
                           _PIN_MANAGER_IOC 0152  
